******************************************************************************
               TMS320C6x Linker Unix v7.3.23                   
******************************************************************************
>> Linked Fri Jul 24 10:38:42 2020

OUTPUT FILE NAME:   </home/admin/Projects/embedded/ti/dsplink-1_65_02/dsplink/dsp/BUILD/OMAP3530_0/SCALE/BIN/RELEASE/scale.out>
ENTRY POINT SYMBOL: "_c_int00"  address: 88129920


MEMORY CONFIGURATION

         name            origin    length      used     unused   attr    fill
----------------------  --------  ---------  --------  --------  ----  --------
  IRAM                  107f8000   00010000  00000000  00010000  RWIX
  CACHE_L2              10808000   00008000  00000000  00008000  RWIX
  CACHE_L1P             10e04000   00004000  00000000  00004000  RWIX
  L1DSRAM               10f04000   00004000  00000000  00004000  RWIX
  CACHE_L1D             10f10000   00008000  00000000  00008000  RWIX
  DSPLINKMEM            88000000   00030000  00000000  00030000  RWIX
  POOLMEM               88030000   000d0000  00000000  000d0000  RWIX
  RESET_VECTOR          88100000   00000080  00000000  00000080  RWIX
  DDR2                  88100080   07efff80  0002b7c1  07ed47bf  RWIX


SECTION ALLOCATION MAP

 output                                  attributes/
section   page    origin      length       input sections
--------  ----  ----------  ----------   ----------------
.pinit     0    88100080    00000000     UNINITIALIZED

.vers      0    00000000    0000003c     COPY SECTION
                  00000000    0000003c     scalecfg.obj (.vers)

.prd       0    88100080    00000000     UNINITIALIZED

.hst       0    88100080    00000000     UNINITIALIZED

.pip       0    88100080    00000000     UNINITIALIZED

.text      0    88100080    000104c0     
                  88100080    00003160     dsplinkringio.lib : _ringio.obj (.text)
                  881031e0    00001160     dsplinkdata.lib : zcpy_data.obj (.text)
                  88104340    00000fa0     dsplinkmpcs.lib : mpcs.obj (.text)
                  881052e0    00000ca0     dsplink.lib : ips.obj (.text)
                  88105f80    000007a0                 : dsplink.obj (.text)
                  88106720    00000680     tskScale.obj (.text)
                  88106da0    00000640     dsplinkmsg.lib : zcpy_mqt.obj (.text)
                  881073e0    000005e0     dsplinkmpcs.lib : _mpcs.obj (.text)
                  881079c0    00000580     rts64plus.lib : _printfi.obj (.text:__getarg_diouxp)
                  88107f40    00000540                   : divd.obj (.text:__divd)
                  88108480    00000540                   : _printfi.obj (.text:__setfield)
                  881089c0    00000520     dsplinkmsg.lib : zcpy_mqt.obj (.text:ZCPYMQT_locate)
                  88108ee0    000004c0     dsplinkpool.lib : sma_pool.obj (.text)
                  881093a0    00000440     rts64plus.lib : _printfi.obj (.text:__printfi)
                  881097e0    00000340                   : divf.obj (.text:__divf)
                  88109b20    00000300     dsplinkmsg.lib : zcpy_mqt.obj (.text:ZCPYMQT_open)
                  88109e20    00000300     rts64plus.lib : _printfi.obj (.text:_ecvt)
                  8810a120    00000300                   : _printfi.obj (.text:_fcvt)
                  8810a420    00000300                   : fputs.obj (.text:_fputs)
                  8810a720    000002e0                   : _printfi.obj (.text:__pproc_fge)
                  8810aa00    000002c0                   : _printfi.obj (.text:__pproc_fwp)
                  8810acc0    000002a0                   : _printfi.obj (.text:__pconv_e)
                  8810af60    00000280     dsplinkdata.lib : zcpy_data.obj (.text:ZCPYDATA_init)
                  8810b1e0    00000280     drivers.a64P : dio_tsk.o64P (.text)
                  8810b460    00000260     rts64plus.lib : imath64.obj (.text:__divull)
                  8810b6c0    00000260                   : mpyd.obj (.text:__mpyd)
                  8810b920    00000240                   : _printfi.obj (.text:__pproc_diouxp)
                  8810bb60    00000220                   : _printfi.obj (.text:__pproc_str)
                  8810bd80    00000220     drivers.a64P : dio_tskDynamic.o64P (.text)
                  8810bfa0    00000200     dsplinkmsg.lib : zcpy_mqt.obj (.text:ZCPYMQT_msgXfer)
                  8810c1a0    00000200     rts64plus.lib : addd.obj (.text:__addd)
                  8810c3a0    00000200                   : frcaddd.obj (.text:__frcaddd)
                  8810c5a0    00000200                   : mpyf.obj (.text:__mpyf)
                  8810c7a0    00000200                   : _printfi.obj (.text:__pconv_g)
                  8810c9a0    000001e0     dsplinkmplist.lib : _mplist.obj (.text)
                  8810cb80    000001c0     dsplink.lib : hal_interrupt.obj (.text:DSPLINK_init)
                  8810cd40    000001c0     rts64plus.lib : _printfi.obj (.text:__mcpy)
                  8810cf00    000001a0                   : imath40.obj (.text:__divul)
                  8810d0a0    00000180                   : trgdrv.obj (.text:_HOSTrename)
                  8810d220    00000180                   : setvbuf.obj (.text:_setvbuf)
                  8810d3a0    00000160     main.obj (.text)
                  8810d500    00000140     dsplinkdata.lib : zcpy_data.obj (.text:DSPLINK_create)
                  8810d640    00000140     dsplinkmsg.lib : zcpy_mqt.obj (.text:ZCPYMQT_close)
                  8810d780    00000140     rts64plus.lib : fputc.obj (.text:_fputc)
                  8810d8c0    00000140                   : lowlev.obj (.text:_getdevice)
                  8810da00    00000120                   : _printfi.obj (.text:__pproc_fflags)
                  8810db20    00000120                   : fclose.obj (.text:_fclose)
                  8810dc40    00000120     dsplinknotify.lib : notify.obj (.text)
                  8810dd60    00000100     rts64plus.lib : trgdrv.obj (.text:_HOSTlseek)
                  8810de60    00000100                   : frcmpyd.obj (.text:__frcmpyd)
                  8810df60    00000100                   : _printfi.obj (.text:__ltostr)
                  8810e060    00000100                   : _io_perm.obj (.text:__wrt_ok)
                  8810e160    00000100     dsplink.lib : hal_interrupt.obj (.text)
                  8810e260    000000e0     rts64plus.lib : trgdrv.obj (.text:_HOSTopen)
                  8810e340    000000e0                   : trgdrv.obj (.text:_HOSTread)
                  8810e420    000000e0                   : cmpd.obj (.text:__cmpd)
                  8810e500    000000e0                   : atoi.obj (.text:_atoi)
                  8810e5e0    000000e0                   : lowlev.obj (.text:_close)
                  8810e6c0    000000e0                   : memset.obj (.text:_memset)
                  8810e7a0    000000c0     dsplink.lib : dsplink.obj (.text:DSPLINK_init)
                  8810e860    000000c0                 : dsplinkips.obj (.text:DSPLINK_init)
                  8810e920    000000c0                 : shm_drv.obj (.text:DSPLINK_init)
                  8810e9e0    000000c0     rts64plus.lib : trgdrv.obj (.text:_HOSTunlink)
                  8810eaa0    000000c0                   : trgdrv.obj (.text:_HOSTwrite)
                  8810eb60    000000c0                   : fopen.obj (.text:__cleanup)
                  8810ec20    000000c0                   : _printfi.obj (.text:__div)
                  8810ece0    000000c0                   : divu.obj (.text:__divu)
                  8810eda0    000000c0                   : fflush.obj (.text:__doflush)
                  8810ee60    000000c0                   : fseek.obj (.text:_fseek)
                  8810ef20    000000c0                   : lowlev.obj (.text:_lseek)
                  8810efe0    000000c0                   : ltoa.obj (.text:_ltoa)
                  8810f0a0    000000c0                   : lowlev.obj (.text:_write)
                  8810f160    000000c0     bios.a64P : tsk_stup.o64P (.text)
                  8810f220    000000c0     dsplinknotify.lib : _notify.obj (.text)
                  8810f2e0    000000a0     dsplinkpool.lib : dsplinkpool.obj (.text:DSPLINK_init)
                  8810f380    000000a0     rts64plus.lib : trgdrv.obj (.text:_HOSTclose)
                  8810f420    000000a0                   : imath40.obj (.text:__divli)
                  8810f4c0    000000a0                   : _printfi.obj (.text:__ecpy)
                  8810f560    000000a0                   : _printfi.obj (.text:__fcpy)
                  8810f600    000000a0                   : fixdli.obj (.text:__fixdli)
                  8810f6a0    000000a0                   : _printfi.obj (.text:__pconv_f)
                  8810f740    000000a0                   : remu.obj (.text:__remu)
                  8810f7e0    000000a0                   : lowlev.obj (.text:_finddevice)
                  8810f880    000000a0                   : memcpy64.obj (.text:_memcpy)
                  8810f920    00000080                   : fixdi.obj (.text:__fixdi)
                  8810f9a0    00000080                   : fixfu.obj (.text:__fixfu)
                  8810fa20    00000080                   : fltlid.obj (.text:__fltlid)
                  8810faa0    00000080                   : llshift.obj (.text:__llshl)
                  8810fb20    00000080                   : renormd.obj (.text:__renormd)
                  8810fba0    00000080                   : printf.obj (.text:_printf)
                  8810fc20    00000080                   : trgmsg.obj (.text:_readmsg)
                  8810fca0    00000080                   : lowlev.obj (.text:_unlink)
                  8810fd20    00000080     dsplinkdata.lib : zcpy_data.obj (.text:init)
                  8810fda0    00000060     rts64plus.lib : frcmpyf.obj (.text:__frcmpyf)
                  8810fe00    00000060                   : imath64.obj (.text:__subcull)
                  8810fe60    00000060                   : memccpy.obj (.text:_memccpy)
                  8810fec0    00000060                   : trgmsg.obj (.text:_writemsg)
                  8810ff20    00000040     dsplinkdata.lib : dsplinkdata.obj (.text:DSPLINK_init)
                  8810ff60    00000040     dsplinkmsg.lib : dsplinkmqt.obj (.text:DSPLINK_init)
                  8810ffa0    00000040     rts64plus.lib : isinf.obj (.text:___isinf)
                  8810ffe0    00000040                   : _printfi.obj (.text:___isnan)
                  88110020    00000040                   : fltuf.obj (.text:__fltuf)
                  88110060    00000040                   : frcmpyd_div.obj (.text:__frcmpyd_div)
                  881100a0    00000040                   : frcmpyf_div.obj (.text:__frcmpyf_div)
                  881100e0    00000040                   : llshift.obj (.text:__llshru)
                  88110120    00000040                   : negd.obj (.text:__negd)
                  88110160    00000040                   : imath40.obj (.text:__remli)
                  881101a0    00000040                   : subd.obj (.text:__subd)
                  881101e0    00000040     drivers.a64P : dio.o64P (.text)
                  88110220    00000040     dsplink.lib : hal.obj (.text)
                  88110260    00000020     dsplinkdata.lib : zcpy_data.obj (.text:DSPLINK_delete)
                  88110280    00000020     dsplinkmsg.lib : zcpy_mqt.obj (.text:DSPLINK_init)
                  881102a0    00000020                    : zcpy_mqt.obj (.text:ZCPYMQT_release)
                  881102c0    00000020     rts64plus.lib : negll.obj (.text:__negll)
                  881102e0    00000020                   : _lock.obj (.text:__nop)
                  88110300    00000020                   : printf.obj (.text:__outc)
                  88110320    00000020                   : printf.obj (.text:__outs)
                  88110340    00000020                   : _lock.obj (.text:__register_lock)
                  88110360    00000020                   : _lock.obj (.text:__register_unlock)
                  88110380    00000020                   : remove.obj (.text:_remove)
                  881103a0    00000020     bios.a64P : sem_pend_counting.o64P ($Tramp$S$$_SEM_pend)
                  881103c0    00000020               : que_get.o64P ($Tramp$S$$_QUE_get)
                  881103e0    00000020               : que_get.o64P ($Tramp$S$$_QUE_put)
                  88110400    00000020               : sem_post_asm.o64P ($Tramp$S$$_SEM_post)
                  88110420    00000020               : sem_dele.o64P ($Tramp$S$$_SEM_delete)
                  88110440    00000020               : mem_free.o64P ($Tramp$S$$_MEM_free)
                  88110460    00000020               : dev_matc.o64P ($Tramp$S$$_DEV_match)
                  88110480    00000020               : mem_vall.o64P ($Tramp$S$$_MEM_valloc)
                  881104a0    00000020               : sem_crea.o64P ($Tramp$S$$_SEM_create)
                  881104c0    00000010               : malloc.o64P ($Tramp$S$$_free)
                  881104d0    00000010               : malloc.o64P ($Tramp$S$$_malloc)
                  881104e0    00000020               : lck.o64P ($Tramp$S$$_LCK_post)
                  88110500    00000020               : lck.o64P ($Tramp$S$$_LCK_pend)
                  88110520    00000020               : sys_abor.o64P ($Tramp$S$$_SYS_abort)

.DDR2$heap 
*          0    88110540    00010000     UNINITIALIZED
                  88110540    00010000     --HOLE--

.bios      0    88120540    00006240     
                  88120540    00000520     bios.a64P : exc.o64P (.bios)
                  88120a60    000004e0               : hwi_disp_asm.o64P (.bios)
                  88120f40    000004c0               : swi.o64P (.bios)
                  88121400    00000380               : prd.o64P (.bios)
                  88121780    00000340               : tsk_crea.o64P (.bios)
                  88121ac0    00000300     sioboth.a64P : sio_crea.o64P (.bios)
                  88121dc0    000002a0     bios.a64P : gio_crea.o64P (.bios)
                  88122060    000002a0               : malloc.o64P (.bios)
                  88122300    00000240               : knl_run.o64P (.bios)
                  88122540    00000200               : mem_free.o64P (.bios:.near)
                  88122740    00000200               : sem_pend.o64P (.bios)
                  88122940    00000200     bios3430.a64P : clk2430.o64P (.bios)
                  88122b40    000001e0     bios.a64P : mem_allo.o64P (.bios:.near)
                  88122d20    000001e0               : c62_plug.o64P (.bios)
                  88122f00    000001e0               : exc_asm.o64P (.bios)
                  881230e0    000001e0               : knl_tick.o64P (.bios)
                  881232c0    000001e0     sioboth.a64P : sio_dele.o64P (.bios)
                  881234a0    000001c0     bios.a64P : gio_sbmt.o64P (.bios)
                  88123660    000001c0               : sem_dopo.o64P (.bios)
                  88123820    000001c0               : tsk_dele.o64P (.bios)
                  881239e0    000001c0               : tsk_setp.o64P (.bios)
                  88123ba0    000001c0     bios3430.a64P : clk.o64P (.bios)
                  88123d60    000001a0     bios.a64P : tsk_setu.o64P (.bios)
                  88123f00    00000180               : knl_swit.o64P (.bios)
                  88124080    00000140               : autoinit.o64P (.bios)
                  881241c0    00000140               : knl_read.o64P (.bios)
                  88124300    00000140               : msgq_open.o64P (.bios)
                  88124440    00000140               : tsk_exit.o64P (.bios)
                  88124580    00000140     bios3430.a64P : bcache_init.o64P (.bios)
                  881246c0    00000140                   : clk2430_reconfig.o64P (.bios)
                  88124800    00000120     bios.a64P : gbl_cacheinit64P.o64P (.bios)
                  88124920    00000120               : knl_chec.o64P (.bios)
                  88124a40    00000120               : tsk_stup.o64P (.bios)
                  88124b60    00000100               : gio_dele.o64P (.bios)
                  88124c60    00000100               : msgq_stup.o64P (.bios)
                  88124d60    00000100     bios3430.a64P : bcache_block.o64P (.bios)
                  88124e60    000000e0     bios.a64P : msgq_locatelocal.o64P (.bios)
                  88124f40    000000e0               : sem_post_asm.o64P (.bios)
                  88125020    000000c0               : dev_matc.o64P (.bios)
                  881250e0    000000c0               : knl_exit.o64P (.bios)
                  881251a0    000000c0               : msgq_alloc.o64P (.bios)
                  88125260    000000c0     sioboth.a64P : sio_recl.o64P (.bios)
                  88125320    000000a0     bios.a64P : dev_mkfr.o64P (.bios)
                  881253c0    000000a0               : knl_star.o64P (.bios)
                  88125460    000000a0               : msgq_close.o64P (.bios)
                  88125500    000000a0               : msgq_get.o64P (.bios)
                  881255a0    000000a0               : msgq_put.o64P (.bios)
                  88125640    000000a0               : sem_post.o64P (.bios)
                  881256e0    000000a0               : swi_seta.o64P (.bios)
                  88125780    000000a0               : sys_exit.o64P (.bios)
                  88125820    000000a0     sioboth.a64P : sio_issu.o64P (.bios)
                  881258c0    00000080     bios.a64P : atm.o64P (.bios)
                  88125940    00000080               : gio_cbck.o64P (.bios)
                  881259c0    00000080               : hwi_disp.o64P (.bios)
                  88125a40    00000080               : hwi_eventmap64P.o64P (.bios)
                  88125ac0    00000080               : knl_ipos.o64P (.bios)
                  88125b40    00000080               : knl_post.o64P (.bios)
                  88125bc0    00000080               : lck.o64P (.bios)
                  88125c40    00000080               : log.o64P (.bios)
                  88125cc0    00000080               : obj_crea.o64P (.bios)
                  88125d40    00000080               : sem_crea.o64P (.bios)
                  88125dc0    00000080               : swi_crea.o64P (.bios)
                  88125e40    00000080               : tsk_disa.o64P (.bios)
                  88125ec0    00000080     bios3430.a64P : bcache_all.o64P (.bios)
                  88125f40    00000080                   : bcache_wait.o64P (.bios)
                  88125fc0    00000060     bios.a64P : mem_vall.o64P (.bios:.near)
                  88126020    00000060               : sys_erro.o64P (.bios:.near)
                  88126080    00000060               : dev_rmfr.o64P (.bios)
                  881260e0    00000060               : fxn.o64P (.bios)
                  88126140    00000060               : hwi_c.o64P (.bios)
                  881261a0    00000060               : lck_crea.o64P (.bios)
                  88126200    00000060               : obj_dele.o64P (.bios)
                  88126260    00000060               : sem_pend_binary.o64P (.bios)
                  881262c0    00000060               : sem_pend_counting.o64P (.bios)
                  88126320    00000060               : sts.o64P (.bios)
                  88126380    00000060               : swi_andn.o64P (.bios)
                  881263e0    00000060               : sys_abor.o64P (.bios)
                  88126440    00000060               : utl_putc.o64P (.bios)
                  881264a0    00000040               : c62_c.o64P (.bios)
                  881264e0    00000040               : msgq_free.o64P (.bios)
                  88126520    00000040               : que_crea.o64P (.bios)
                  88126560    00000040               : que_get.o64P (.bios)
                  881265a0    00000040               : utl_doab.o64P (.bios)
                  881265e0    00000020               : fxn_c.o64P (.bios)
                  88126600    00000020               : gbl_vers.o64P (.bios)
                  88126620    00000020               : hook_setenv.o64P (.bios)
                  88126640    00000020               : idl.o64P (.bios)
                  88126660    00000020               : iom_stub.o64P (.bios)
                  88126680    00000020               : log_printf.o64P (.bios)
                  881266a0    00000020               : sem_dele.o64P (.bios)
                  881266c0    00000020               : sts_set.o64P (.bios)
                  881266e0    00000020               : swi_dele.o64P (.bios)
                  88126700    00000020               : sys_one.o64P (.bios)
                  88126720    00000020               : utl_doer.o64P (.bios)
                  88126740    00000020               : utl_halt.o64P (.bios)
                  88126760    00000020     bios3430.a64P : clk2430_gethtime.o64P (.bios)

.stack     0    88126780    00001000     UNINITIALIZED
                  88126780    00001000     --HOLE--

.cinit     0    88127780    00001014     
                  88127780    0000049c     scalecfg.obj (.cinit)
                  88127c1c    00000004     --HOLE-- [fill = 0]
                  88127c20    0000026c     bios.a64P : biosdata.o64P (.cinit)
                  88127e8c    00000004     --HOLE-- [fill = 0]
                  88127e90    000001a4               : knl.o64P (.cinit)
                  88128034    00000004     --HOLE-- [fill = 0]
                  88128038    000000b0               : swi.o64P (.cinit)
                  881280e8    00000096     scale_config.obj (.cinit)
                  8812817e    00000002     --HOLE-- [fill = 0]
                  88128180    00000080     bios.a64P : tsk.o64P (.cinit)
                  88128200    00000060               : tsk_stup.o64P (.cinit)
                  88128260    0000005c     rts64plus.lib : defs.obj (.cinit)
                  881282bc    00000004     --HOLE-- [fill = 0]
                  881282c0    0000005c                   : lowlev.obj (.cinit)
                  8812831c    00000004     --HOLE-- [fill = 0]
                  88128320    0000003c     bios.a64P : exc.o64P (.cinit)
                  8812835c    00000004     --HOLE-- [fill = 0]
                  88128360    00000034               : hwi.o64P (.cinit)
                  88128394    00000004     --HOLE-- [fill = 0]
                  88128398    0000002c               : utl_putc.o64P (.cinit)
                  881283c4    00000004     --HOLE-- [fill = 0]
                  881283c8    0000002c     rts64plus.lib : exit.obj (.cinit)
                  881283f4    00000004     --HOLE-- [fill = 0]
                  881283f8    0000002a     dsplinkmsg.lib : zcpy_mqt.obj (.cinit)
                  88128422    00000006     --HOLE-- [fill = 0]
                  88128428    00000028     dsplink.lib : ips.obj (.cinit)
                  88128450    00000024     bios.a64P : gio_cfg.o64P (.cinit)
                  88128474    00000004     --HOLE-- [fill = 0]
                  88128478    00000024               : obj_init.o64P (.cinit)
                  8812849c    00000004     --HOLE-- [fill = 0]
                  881284a0    00000024     drivers.a64P : dio_tskDynamic.o64P (.cinit)
                  881284c4    00000004     --HOLE-- [fill = 0]
                  881284c8    00000024     sioboth.a64P : sio.o64P (.cinit)
                  881284ec    00000004     --HOLE-- [fill = 0]
                  881284f0    00000020     dsplinkdata.lib : zcpy_data.obj (.cinit)
                  88128510    0000001c     bios.a64P : exc_asm.o64P (.cinit)
                  8812852c    00000004     --HOLE-- [fill = 0]
                  88128530    0000001c               : swi_seta.o64P (.cinit)
                  8812854c    00000004     --HOLE-- [fill = 0]
                  88128550    0000001c               : sys.o64P (.cinit)
                  8812856c    00000004     --HOLE-- [fill = 0]
                  88128570    0000001c     dsplink.lib : dsplink.obj (.cinit)
                  8812858c    00000004     --HOLE-- [fill = 0]
                  88128590    0000001c     dsplinkmpcs.lib : _mpcs.obj (.cinit)
                  881285ac    00000004     --HOLE-- [fill = 0]
                  881285b0    0000001c     dsplinkmplist.lib : _mplist.obj (.cinit)
                  881285cc    00000004     --HOLE-- [fill = 0]
                  881285d0    0000001c     dsplinknotify.lib : _notify.obj (.cinit)
                  881285ec    00000004     --HOLE-- [fill = 0]
                  881285f0    0000001c     dsplinkringio.lib : ringio.obj (.cinit)
                  8812860c    00000004     --HOLE-- [fill = 0]
                  88128610    0000001c     rts64plus.lib : _lock.obj (.cinit)
                  8812862c    00000004     --HOLE-- [fill = 0]
                  88128630    00000018     bios.a64P : knl_tick.o64P (.cinit)
                  88128648    00000018               : tsk_setp.o64P (.cinit)
                  88128660    00000014               : hwi_disp.o64P (.cinit)
                  88128674    00000004     --HOLE-- [fill = 0]
                  88128678    00000014     bios3430.a64P : bcache_table.o64P (.cinit)
                  8812868c    00000004     --HOLE-- [fill = 0]
                  88128690    00000010     bios.a64P : gio.o64P (.cinit)
                  881286a0    00000010               : sem_crea.o64P (.cinit)
                  881286b0    0000000c               : knl_star.o64P (.cinit)
                  881286bc    00000004     --HOLE-- [fill = 0]
                  881286c0    0000000c               : knl_swit.o64P (.cinit)
                  881286cc    00000004     --HOLE-- [fill = 0]
                  881286d0    0000000c               : msgq.o64P (.cinit)
                  881286dc    00000004     --HOLE-- [fill = 0]
                  881286e0    0000000c               : pool.o64P (.cinit)
                  881286ec    00000004     --HOLE-- [fill = 0]
                  881286f0    0000000c               : que_crea.o64P (.cinit)
                  881286fc    00000004     --HOLE-- [fill = 0]
                  88128700    0000000c               : tsk_disa.o64P (.cinit)
                  8812870c    00000004     --HOLE-- [fill = 0]
                  88128710    0000000c     bios3430.a64P : bcache_wait.o64P (.cinit)
                  8812871c    00000004     --HOLE-- [fill = 0]
                  88128720    0000000c     dsplink.lib : shm_drv.obj (.cinit)
                  8812872c    00000004     --HOLE-- [fill = 0]
                  88128730    0000000c     dsplinkmpcs.lib : mpcs.obj (.cinit)
                  8812873c    00000004     --HOLE-- [fill = 0]
                  88128740    0000000c     dsplinkmsg.lib : dsplinkmqt.obj (.cinit)
                  8812874c    00000004     --HOLE-- [fill = 0]
                  88128750    0000000c     rts64plus.lib : fopen.obj (.cinit)
                  8812875c    00000004     --HOLE-- [fill = 0]
                  88128760    0000000a     bios.a64P : msgq_init.o64P (.cinit)
                  8812876a    00000006     --HOLE-- [fill = 0]
                  88128770    0000000a               : msgq_stup.o64P (.cinit)
                  8812877a    00000006     --HOLE-- [fill = 0]
                  88128780    0000000a               : pool_init.o64P (.cinit)
                  8812878a    00000006     --HOLE-- [fill = 0]
                  88128790    00000004     (.pad.cinit) [fill = 0]

.idl       0    88128794    00000004     UNINITIALIZED
                  88128794    00000004     scalecfg.obj (.idl)

.far       0    88128798    00000ae4     UNINITIALIZED
                  88128798    00000324     rts64plus.lib : defs.obj (.far)
                  88128abc    00000004     bios.a64P : que_crea.o64P (.far)
                  88128ac0    00000120     dsplink.lib : ips.obj (.far)
                  88128be0    0000011c     rts64plus.lib : lowlev.obj (.far)
                  88128cfc    00000004     bios3430.a64P : bcache_wait.o64P (.far)
                  88128d00    000000d8     bios.a64P : knl.o64P (.far)
                  88128dd8    000000d0     rts64plus.lib : trgdrv.obj (.far)
                  88128ea8    00000080     dsplinkpool.lib : dsplinkpool.obj (.far)
                  88128f28    00000080     scale_config.obj (.far)
                  88128fa8    00000064     dsplinkdata.lib : zcpy_data.obj (.far)
                  8812900c    0000005c     bios.a64P : tsk.o64P (.far)
                  88129068    00000054               : obj_init.o64P (.far)
                  881290bc    00000050               : tsk_stup.o64P (.far)
                  8812910c    00000004     bios3430.a64P : clk2430_data.o64P (.far)
                  88129110    00000020     bios.a64P : sys.o64P (.far)
                  88129130    0000001c     drivers.a64P : dio_tskDynamic.o64P (.far)
                  8812914c    0000001c     sioboth.a64P : sio.o64P (.far)
                  88129168    00000016     dsplinkmsg.lib : zcpy_mqt.obj (.far)
                  8812917e    00000002     --HOLE--
                  88129180    00000014     bios.a64P : swi_seta.o64P (.far)
                  88129194    00000004     dsplink.lib : shm_drv.obj (.far)
                  88129198    00000014                 : hal_interrupt.obj (.far)
                  881291ac    00000010     bios.a64P : exc.o64P (.far)
                  881291bc    00000010               : gio_cfg.o64P (.far)
                  881291cc    00000010               : knl_tick.o64P (.far)
                  881291dc    00000010               : tsk_setp.o64P (.far)
                  881291ec    0000000c               : hwi_disp.o64P (.far)
                  881291f8    0000000c               : utl_putc.o64P (.far)
                  88129204    0000000c     bios3430.a64P : bcache_table.o64P (.far)
                  88129210    0000000c     rts64plus.lib : exit.obj (.far)
                  8812921c    00000008     bios.a64P : gio.o64P (.far)
                  88129224    00000008               : sem_crea.o64P (.far)
                  8812922c    00000008     dsplink.lib : dsplink.obj (.far)
                  88129234    00000008     dsplinkmpcs.lib : _mpcs.obj (.far)
                  8812923c    00000008                     : mpcs.obj (.far)
                  88129244    00000008     dsplinkmplist.lib : _mplist.obj (.far)
                  8812924c    00000008     dsplinknotify.lib : _notify.obj (.far)
                  88129254    00000008     dsplinkringio.lib : ringio.obj (.far)
                  8812925c    00000008     rts64plus.lib : _lock.obj (.far)
                  88129264    00000004     dsplinkdata.lib : dsplinkdata.obj (.far)
                  88129268    00000004     bios.a64P : dev_init.o64P (.far)
                  8812926c    00000004     dsplinkmsg.lib : dsplinkmqt.obj (.far)
                  88129270    00000004     main.obj (.far)
                  88129274    00000004     rts64plus.lib : fopen.obj (.far)
                  88129278    00000004     scalecfg.obj (.far)

.idlcal    0    8812927c    00000004     UNINITIALIZED
                  8812927c    00000004     scalecfg.obj (.idlcal)

.sysinit   0    88129280    000008c0     
                  88129280    00000320     scalecfg.obj (.sysinit)
                  881295a0    00000140     bios.a64P : msgq_init.o64P (.sysinit)
                  881296e0    00000120               : dev_init.o64P (.sysinit)
                  88129800    00000120               : pool_init.o64P (.sysinit)
                  88129920    000000c0               : boot.o64P (.sysinit)
                  881299e0    000000a0               : mem_init.o64P (.sysinit)
                  88129a80    00000060               : tsk_init.o64P (.sysinit)
                  88129ae0    00000020               : gio.o64P (.sysinit)
                  88129b00    00000020               : obj_init.o64P (.sysinit)
                  88129b20    00000020     drivers.a64P : dio.o64P (.sysinit)

.const     0    88129b40    00000861     
                  88129b40    000002b8     dsplink.lib : dsplink.obj (.const:.string)
                  88129df8    00000193     bios.a64P : exc.o64P (.const)
                  88129f8b    00000004               : gio_crea.o64P (.const)
                  88129f8f    00000001     --HOLE-- [fill = 0]
                  88129f90    00000101     rts64plus.lib : ctype.obj (.const:.string:__ctypes_)
                  8812a091    0000004e     bios.a64P : pool_init.o64P (.const)
                  8812a0df    0000004e               : tsk_stup.o64P (.const)
                  8812a12d    00000034     main.obj (.const:.string)
                  8812a161    0000002c     bios.a64P : msgq_init.o64P (.const)
                  8812a18d    00000025     swiScale.obj (.const:.string)
                  8812a1b2    00000025     tskScale.obj (.const:.string)
                  8812a1d7    00000024     bios.a64P : msgq_stup.o64P (.const)
                  8812a1fb    00000023     rts64plus.lib : _printfi.obj (.const:.string)
                  8812a21e    00000023     bios.a64P : utl_doab.o64P (.const)
                  8812a241    00000022     dsplinkmsg.lib : zcpy_mqt.obj (.const:.string)
                  8812a263    00000022     bios.a64P : utl_doer.o64P (.const)
                  8812a285    00000020               : dev_init.o64P (.const)
                  8812a2a5    0000001f     scalecfg.obj (.const)
                  8812a2c4    00000019     dsplinkmplist.lib : _mplist.obj (.const:.string)
                  8812a2dd    00000019     dsplinkringio.lib : _ringio.obj (.const:.string)
                  8812a2f6    00000002     rts64plus.lib : fputs.obj (.const:.string)
                  8812a2f8    00000018     bios.a64P : msgq.o64P (.const)
                  8812a310    00000012     dsplinkdata.lib : zcpy_data.obj (.const:.string)
                  8812a322    00000012     dsplinkmpcs.lib : _mpcs.obj (.const:.string)
                  8812a334    00000012                     : mpcs.obj (.const:.string)
                  8812a346    00000012     dsplinkpool.lib : sma_pool.obj (.const:.string)
                  8812a358    00000010                     : sma_pool.obj (.const)
                  8812a368    0000000e     dsplink.lib : dsplink.obj (.const:.string:___FUNCTION__$1)
                  8812a376    00000002     --HOLE-- [fill = 0]
                  8812a378    00000008     rts64plus.lib : divd.obj (.const:.string:_initial_approx$1)
                  8812a380    00000008                   : divf.obj (.const:.string:_initial_approx$1)
                  8812a388    00000008     dsplinkdata.lib : zcpy_data.obj (.const)
                  8812a390    00000004     bios.a64P : mem_allo.o64P (.const)
                  8812a394    00000004               : mem_free.o64P (.const)
                  8812a398    00000004     sioboth.a64P : sio_crea.o64P (.const)
                  8812a39c    00000001     bios.a64P : sem_crea.o64P (.const)
                  8812a39d    00000003     --HOLE-- [fill = 0]
                  8812a3a0    00000001               : tsk.o64P (.const)

.printf    0    8812a3a1    0000001a     COPY SECTION
                  8812a3a1    0000001a     scalecfg.obj (.printf)

.mem       0    8812a3a4    00000004     UNINITIALIZED
                  8812a3a4    00000004     scalecfg.obj (.mem)

.TSK_idle$stk 
*          0    8812a3a8    00000400     UNINITIALIZED
                  8812a3a8    00000400     scalecfg.obj (.TSK_idle$stk)

.ZCPYLINK_TSK_OBJ$stk 
*          0    8812a7a8    00000400     UNINITIALIZED
                  8812a7a8    00000400     scalecfg.obj (.ZCPYLINK_TSK_OBJ$stk)

.bss       0    8812aba8    00000356     UNINITIALIZED
                  8812aba8    00000100     bios.a64P : hwi_disp_asm.o64P (.bss)
                  8812aca8    000000cc               : biosdata.o64P (.bss)
                  8812ad74    0000009c               : swi.o64P (.bss)
                  8812ae10    00000048               : knl.o64P (.bss)
                  8812ae58    00000020               : exc_asm.o64P (.bss)
                  8812ae78    0000001c     scalecfg.obj (.bss)
                  8812ae94    00000018     bios.a64P : hwi.o64P (.bss)
                  8812aeac    00000010               : exc.o64P (.bss)
                  8812aebc    0000000c               : tsk.o64P (.bss)
                  8812aec8    00000008               : clk_data.o64P (.bss)
                  8812aed0    00000008               : sys.o64P (.bss)
                  8812aed8    00000004               : clk_data2.o64P (.bss)
                  8812aedc    00000004               : dev_init.o64P (.bss)
                  8812aee0    00000004               : gio_cfg.o64P (.bss)
                  8812aee4    00000004               : knl_star.o64P (.bss)
                  8812aee8    00000004               : mem_asm.o64P (.bss)
                  8812aeec    00000004               : msgq.o64P (.bss)
                  8812aef0    00000004               : pool.o64P (.bss)
                  8812aef4    00000004               : tsk_disa.o64P (.bss)
                  8812aef8    00000002               : msgq_init.o64P (.bss)
                  8812aefa    00000002               : msgq_stup.o64P (.bss)
                  8812aefc    00000002               : pool_init.o64P (.bss)

.LOG_system$buf 
*          0    8812af00    00000100     UNINITIALIZED
                  8812af00    00000100     scalecfg.obj (.LOG_system$buf)

.hwi_vec   0    8812b000    00000200     
                  8812b000    00000200     scalecfg.obj (.hwi_vec)

.trace     0    8812b200    00000200     
                  8812b200    00000200     --HOLE-- [fill = 00000000]

.cio       0    8812b400    00000120     UNINITIALIZED
                  8812b400    00000120     rts64plus.lib : trgmsg.obj (.cio)

.tsk       0    8812b520    000000c0     UNINITIALIZED
                  8812b520    000000c0     scalecfg.obj (.tsk)

.sts       0    8812b5e0    00000010     
                  8812b5e0    00000010     scalecfg.obj (.sts)

.switch    0    8812b5f0    00000010     
                  8812b5f0    00000010     dsplinkringio.lib : _ringio.obj (.switch:__RingIO_checkNotifier)

.data      0    8812b600    00000084     UNINITIALIZED
                  8812b600    00000084     dsplink.lib : dsplink.obj (.data:DSPLINK_shmBaseAddress)

.devtable 
*          0    8812b684    00000048     UNINITIALIZED
                  8812b684    00000048     scalecfg.obj (.devtable)

.args      0    8812b6cc    00000032     
                  8812b6cc    00000032     --HOLE-- [fill = 0]

.trace$buf 
*          0    8812b700    00000080     UNINITIALIZED
                  8812b700    00000080     scalecfg.obj (.trace$buf)

.gblinit   0    8812b780    00000040     
                  8812b780    00000040     scalecfg.obj (.gblinit)

.log       0    8812b7c0    00000030     
                  8812b7c0    00000030     scalecfg.obj (.log)

.swi       0    8812b7f0    0000002c     UNINITIALIZED
                  8812b7f0    0000002c     scalecfg.obj (.swi)

.sys       0    8812b81c    00000010     UNINITIALIZED
                  8812b81c    00000010     scalecfg.obj (.sys)

.trcdata   0    8812b82c    0000000c     
                  8812b82c    0000000c     bios.a64P : trc.o64P (.trcdata)

.clk       0    8812b838    00000008     UNINITIALIZED
                  8812b838    00000008     scalecfg.obj (.clk)

.dio       0    8812b840    00000008     UNINITIALIZED
                  8812b840    00000008     scalecfg.obj (.dio)


FAR CALL TRAMPOLINES

callee name               trampoline name
   callee addr  tramp addr   call addr  call info
--------------  -----------  ---------  ----------------
$.bios:bios.a64P<sem_pend_counting.o64P>$0x0  $Tramp$S$$_SEM_pend
   881262c0     881103a0     8810b1ec   drivers.a64P : dio_tsk.o64P (.text)
                             8810b32c                : dio_tsk.o64P (.text)
$.bios:bios.a64P<que_get.o64P>$0x0  $Tramp$S$$_QUE_get
   88126560     881103c0     8810b234   drivers.a64P : dio_tsk.o64P (.text)
$.bios:bios.a64P<que_get.o64P>$0x28  $Tramp$S$$_QUE_put
   88126588     881103e0     8810b290   drivers.a64P : dio_tsk.o64P (.text)
                             8810b3e4                : dio_tsk.o64P (.text)
$.bios:bios.a64P<sem_post_asm.o64P>$0x0  $Tramp$S$$_SEM_post
   88124f40     88110400     8810b2ac   drivers.a64P : dio_tsk.o64P (.text)
                             8810b384                : dio_tsk.o64P (.text)
                             8810b3ec                : dio_tsk.o64P (.text)
                             8810b400                : dio_tsk.o64P (.text)
                             8810b420                : dio_tsk.o64P (.text)
$.bios:bios.a64P<sem_dele.o64P>$0x0  $Tramp$S$$_SEM_delete
   881266a0     88110420     8810bdb4   drivers.a64P : dio_tskDynamic.o64P (.text)
                             8810bdcc                : dio_tskDynamic.o64P (.text)
$.bios:.near:bios.a64P<mem_free.o64P>$0x0  $Tramp$S$$_MEM_free
   88122540     88110440     8810bde0   drivers.a64P : dio_tskDynamic.o64P (.text)
                             8810beac                : dio_tskDynamic.o64P (.text)
$.bios:bios.a64P<dev_matc.o64P>$0x0  $Tramp$S$$_DEV_match
   88125020     88110460     8810be28   drivers.a64P : dio_tskDynamic.o64P (.text)
$.bios:.near:bios.a64P<mem_vall.o64P>$0x0  $Tramp$S$$_MEM_valloc
   88125fc0     88110480     8810be4c   drivers.a64P : dio_tskDynamic.o64P (.text)
$.bios:bios.a64P<sem_crea.o64P>$0x0  $Tramp$S$$_SEM_create
   88125d40     881104a0     8810be64   drivers.a64P : dio_tskDynamic.o64P (.text)
$.bios:bios.a64P<malloc.o64P>$0x0  $Tramp$S$$_free
   88122060     881104c0     8810d288   rts64plus.lib : setvbuf.obj (.text:_setvbuf)
                             8810db88                 : fclose.obj (.text:_fclose)
$.bios:bios.a64P<malloc.o64P>$0x28  $Tramp$S$$_malloc
   88122088     881104d0     8810d308   rts64plus.lib : setvbuf.obj (.text:_setvbuf)
$.bios:bios.a64P<lck.o64P>$0x0  $Tramp$S$$_LCK_post
   88125bc0     881104e0     8810f160   bios.a64P : tsk_stup.o64P (.text)
$.bios:bios.a64P<lck.o64P>$0x20  $Tramp$S$$_LCK_pend
   88125be0     88110500     8810f1c4   bios.a64P : tsk_stup.o64P (.text)
$.bios:bios.a64P<sys_abor.o64P>$0x0  $Tramp$S$$_SYS_abort
   881263e0     88110520     8810f1c8   bios.a64P : tsk_stup.o64P (.text)
                             8810f1e4             : tsk_stup.o64P (.text)

[14 trampolines]
[24 trampoline calls]


GLOBAL SYMBOLS: SORTED ALPHABETICALLY BY Name 

address    name
--------   ----
8812aba8   $bss
8812aba8   .bss
8812b600   .data
88100080   .text
88129280   BIOS_init
88129500   BIOS_start
00000000   BUF$
00000001   BUF_ENABLED
8810ff18   C$$IO$$
ffffffff   CACHE_L1D
ffffffff   CACHE_L1P
ffffffff   CACHE_L2
00000001   CLK$
8812b838   CLK_A_TABBEG
00000001   CLK_CALDIV
00000001   CLK_CALMULT
00050910   CLK_COUNTSPMS
00000005   CLK_COUNTSPMSHIGH
8812acd0   CLK_D_idletime
8812accc   CLK_D_isrhook
8812acc8   CLK_D_tabbeg
8812acc4   CLK_D_timefxn
00000001   CLK_ENABLEHTIME
88123ba0   CLK_F_getltime
88123bb0   CLK_F_isr
88123d00   CLK_F_itime
88120a60   CLK_HOOKFXN
00000001   CLK_HTIMEDIV
00000001   CLK_HTIMEMULT
00050910   CLK_HTIMEPERLTIME
00004b00   CLK_INPUTCLK
00004000   CLK_INTBIT
00000001   CLK_LTIMEDIV
00050910   CLK_LTIMEMULT
000003e8   CLK_MICROSECS
00000001   CLK_POWERENABLE
00004b00   CLK_PRD
00000000   CLK_PRDHIGH
49038000   CLK_REGS
00000000   CLK_RESETTIMER
8812acc0   CLK_R_time
00000020   CLK_TCR
00000000   CLK_TDDR
00000000   CLK_TDDRHIGH
88126760   CLK_TIMEFXN
00000000   CLK_TIMERNUM
00000005   CLK_TIMMODE
00000001   CLK_USETIMER
8812b83c   CLK_null
8812ae84   DDR2
88110540   DDR2$B
00010000   DDR2$L
00000000   DEV$
00000000   DGN$
00000000   DHL$
00000000   DHL_gChannelsAvailable
00000001   DIO$
00000000   DIO_NUMSWIBASE
00000000   DIO_NUMTSKBASE
00000000   DIO_STATIC
8812b690   DIO_dio_dsplink$device
8812b684   DIO_dio_dsplink$obj
00000000   DPI$
ffffffff   DSPLINKMEM
00000000   ECM$
00000000   ECM_ENABLE
ffffffff   ECM_EVTMASK0
ffffffff   ECM_EVTMASK1
ffffffff   ECM_EVTMASK2
ffffffff   ECM_EVTMASK3
0000000a   EVENT10
00000064   EVENT100
00000065   EVENT101
00000066   EVENT102
00000067   EVENT103
00000068   EVENT104
00000069   EVENT105
0000006a   EVENT106
0000006b   EVENT107
0000006c   EVENT108
0000006d   EVENT109
0000000b   EVENT11
0000006e   EVENT110
0000006f   EVENT111
00000070   EVENT112
00000071   EVENT113
00000072   EVENT114
00000073   EVENT115
00000074   EVENT116
00000075   EVENT117
00000076   EVENT118
00000077   EVENT119
0000000c   EVENT12
00000078   EVENT120
00000079   EVENT121
0000007a   EVENT122
0000007b   EVENT123
0000007c   EVENT124
0000007d   EVENT125
0000007e   EVENT126
0000007f   EVENT127
0000000d   EVENT13
0000000e   EVENT14
0000000f   EVENT15
00000010   EVENT16
00000011   EVENT17
00000012   EVENT18
00000013   EVENT19
00000014   EVENT20
00000015   EVENT21
00000016   EVENT22
00000017   EVENT23
00000018   EVENT24
00000019   EVENT25
0000001a   EVENT26
0000001b   EVENT27
0000001c   EVENT28
0000001d   EVENT29
0000001e   EVENT30
0000001f   EVENT31
00000020   EVENT32
00000021   EVENT33
00000022   EVENT34
00000023   EVENT35
00000024   EVENT36
00000025   EVENT37
00000026   EVENT38
00000027   EVENT39
00000004   EVENT4
00000028   EVENT40
00000029   EVENT41
0000002a   EVENT42
0000002b   EVENT43
0000002c   EVENT44
0000002d   EVENT45
0000002e   EVENT46
0000002f   EVENT47
00000030   EVENT48
00000031   EVENT49
00000005   EVENT5
00000032   EVENT50
00000033   EVENT51
00000034   EVENT52
00000035   EVENT53
00000036   EVENT54
00000037   EVENT55
00000038   EVENT56
00000039   EVENT57
0000003a   EVENT58
0000003b   EVENT59
00000006   EVENT6
0000003c   EVENT60
0000003d   EVENT61
0000003e   EVENT62
0000003f   EVENT63
00000040   EVENT64
00000041   EVENT65
00000042   EVENT66
00000043   EVENT67
00000044   EVENT68
00000045   EVENT69
00000007   EVENT7
00000046   EVENT70
00000047   EVENT71
00000048   EVENT72
00000049   EVENT73
0000004a   EVENT74
0000004b   EVENT75
0000004c   EVENT76
0000004d   EVENT77
0000004e   EVENT78
0000004f   EVENT79
00000008   EVENT8
00000050   EVENT80
00000051   EVENT81
00000052   EVENT82
00000053   EVENT83
00000054   EVENT84
00000055   EVENT85
00000056   EVENT86
00000057   EVENT87
00000058   EVENT88
00000059   EVENT89
00000009   EVENT9
0000005a   EVENT90
0000005b   EVENT91
0000005c   EVENT92
0000005d   EVENT93
0000005e   EVENT94
0000005f   EVENT95
00000060   EVENT96
00000061   EVENT97
00000062   EVENT98
00000063   EVENT99
881260e0   FXN_F_nop
881260e4   FXN_F_run
88126120   FXN_F_zero
00000001   GBL$
00005205   GBL_A_VERSION
00000000   GBL_BCACHEREADADDR0
00000000   GBL_BCACHEREADADDR1
00000000   GBL_BCACHEREADADDR2
00000000   GBL_BIGENDIAN
00000000   GBL_CACHE
00000000   GBL_CALLCSLCFGINIT
00004e20   GBL_CLKIN
00000d66   GBL_CLKTYPE
00001963   GBL_DSPSUBTYPE
0000003e   GBL_DSPTYPE
00000000   GBL_ENABLEINST
00000000   GBL_ENABLE_SK
00000042   GBL_FOOTPRINT
00050910   GBL_FREQ
00000000   GBL_GEMTRUECOMPEN
00000007   GBL_L1DMODE
00000003   GBL_L1PMODE
00000001   GBL_L2CONFIGURE
00000000   GBL_L2MAR0_31
0000ff00   GBL_L2MAR128_159
00000000   GBL_L2MAR160_191
00000000   GBL_L2MAR192_223
00000000   GBL_L2MAR224_255
00000000   GBL_L2MAR32_63
00000000   GBL_L2MAR64_95
00000000   GBL_L2MAR96_127
00000001   GBL_L2MODE
00000000   GBL_NULL
00000000   GBL_PROCID
00000000   GBL_ROM
00000000   GBL_SUPPORTCSL
00004000   GBL_TRCMASKVALUE
00000000   GBL_USERINIT
881265e0   GBL_USERINITFXN
00000001   GBL_boot
8812b834   GBL_initdone
88126780   GBL_stackbeg
8812777f   GBL_stackend
00000000   GIO$
881265e0   GIO_CREATEFXN
881265e0   GIO_DELETEFXN
881265e0   GIO_PENDFXN
881265e0   GIO_POSTFXN
00000000   HOOK$
00000000   HOOK_KNLID
00000000   HST$
88100080   HST_A_TABBEG
88100080   HST_A_TABEND
00000000   HST_DSM
8812ae84   HST_DSMBUFSEG
00000400   HST_DSMMEMSIZE
8812ad3c   HST_D_chanmask
8812ad40   HST_D_tabbeg
8812ad44   HST_D_tabend
00000100   HST_MAXFRAMEALLOWED
00000000   HST_MAXFRAMESET
00000001   HST_NONE
00000000   HST_RTDX
00000001   HWI$
8812b000   HWI_A_VECS
00004000   HWI_CFGDISPATCHED
8812aea4   HWI_D_bss
8812aea8   HWI_D_ccmask
8812ae94   HWI_D_spsave
00000001   HWI_ENABLE_EXC
88120a60   HWI_F_dispatch
00000000   HWI_GENERATE_RESET_VEC
0000000a   HWI_INT10
00000000   HWI_INT10$hwi
0000000b   HWI_INT11
00000000   HWI_INT11$hwi
0000000c   HWI_INT12
00000000   HWI_INT12$hwi
0000000d   HWI_INT13
00000000   HWI_INT13$hwi
0000000e   HWI_INT14
00000000   HWI_INT14$hwi
0000000f   HWI_INT15
00000000   HWI_INT15$hwi
00000004   HWI_INT4
00000000   HWI_INT4$hwi
00000005   HWI_INT5
00000000   HWI_INT5$hwi
00000006   HWI_INT6
00000000   HWI_INT6$hwi
00000007   HWI_INT7
00000000   HWI_INT7$hwi
00000008   HWI_INT8
00000000   HWI_INT8$hwi
00000009   HWI_INT9
00000000   HWI_INT9$hwi
07060504   HWI_INTRMUX1
0a0a0908   HWI_INTRMUX2
34330d0b   HWI_INTRMUX3
00000001   HWI_NMI
00000000   HWI_NMI$hwi
00000000   HWI_POLARITYMASK
00000002   HWI_RESERVED0
00000000   HWI_RESERVED0$hwi
00000003   HWI_RESERVED1
00000000   HWI_RESERVED1$hwi
00000000   HWI_RESET
00000000   HWI_RESET$hwi
00000000   HWI_ZEROTAB
00000000   IDL$
8812927c   IDL_A_CALBEG
88128794   IDL_A_TABBEG
00000000   IDL_CALIBRERROR
00000000   IDL_CALIBRFXN
8812acb0   IDL_D_calbeg
8812acac   IDL_D_calibrate
8812aca8   IDL_D_tabbeg
88128794   IDL_END
8812927c   IDL_END$
88126640   IDL_F_loop
00000000   IDL_USECLKIDLTIME
ffffffff   IRAM
00000001   ISRC$
88124058   KNL_glue
8812b7f0   KNL_swi
00000001   KNL_swi$dorta
00000000   KNL_swi$ord
00000000   KNL_swi$pri
8812b5e4   KNL_swi$sts
8812a3b1   KNL_swi$sts$avgfmt
00000002   KNL_swi$sts$filter
00000001   KNL_swi$sts$filtmaxmult
00000001   KNL_swi$sts$filtsummult
8812a3a1   KNL_swi$sts$maxfmt
8812b5e0   KNL_swi$sts$stsobj
8812a3a9   KNL_swi$sts$sumfmt
00000000   KNL_swi$sts$unittype
00000000   KNL_swi$swi
ffffffff   L1DSRAM
00000001   LCK$
00000001   LOG$
8812b7c0   LOG_A_TABBEG
8812b7f0   LOG_A_TABEND
00000002   LOG_A_TABLEN
8812acb4   LOG_D_system
00000001   LOG_ENABLED
88125c40   LOG_F_event
8812b7c0   LOG_system
8812af00   LOG_system$buf
00000000   LOG_system$datatype
00000000   LOG_system$log
00000040   LOG_system$size
00000000   MBX$
00000001   MEM$
8812ae84   MEM_MALLOCSEG
00000000   MEM_NULL
8812ae84   MEM_SEGZERO
00000000   MEM_USEMPC
00000001   MEM_gNumHeap
00000001   MSGQ$
00000001   MSGQ_USEMSGQ
00000000   OBJ$
00000000   PIP$
88100080   PIP_A_TABBEG
88100080   PIP_A_TABEND
00000000   PIP_A_TABLEN
8812acb8   PIP_D_tabbeg
8812acbc   PIP_D_tablen
00000064   PIP_OBJSIZE
00000000   PIP_gNextId
00000000   PIP_gNumEmbed
00000001   POOL$
ffffffff   POOLMEM
00000001   POOL_USEPOOL
00000001   PRD$
88100080   PRD_A_TABBEG
88100080   PRD_A_TABEND
00000000   PRD_A_TABLEN
8812acf8   PRD_D_cur
8812acfc   PRD_D_elapsed
8812ad00   PRD_D_prevtim
8812ad04   PRD_D_scalar
8812ad08   PRD_D_swihandle
8812ad0c   PRD_D_tabbeg
8812ad10   PRD_D_tablen
8812ad14   PRD_D_thook
8812acf4   PRD_D_tick
88121400   PRD_F_swi
88121684   PRD_F_tick
00000001   PRD_SCALAR
00000000   PRD_SWIHANDLE
881232ac   PRD_THOOKFXN
8812b838   PRD_clock
00000001   PWRM$
00000000   PWRM_PWRM_CAPSMASK
0000000a   PWRM_PWRM_CLKTICKSPERSLOT
00000000   PWRM_PWRM_ENABLE
00000000   PWRM_PWRM_LOADENABLE
00000001   PWRM_PWRM_NUMSLOTS
00000000   PWRM_PWRM_RESOURCETRACKING
00000000   PWRM_PWRM_SCALING
881265e0   PWRM_PWRM_SHAREDRESOURCEFXN
881265e0   PWRM_PWRM_SLOTHOOKFXN
00000000   PWRM_PWRM_TIMERIDNUM
00000000   PWRM_PWRM_TIMERINTRMASK
00000000   PWRM_PWRM_TIMERWUGENMASK
00000000   PWRM_PWRM_USERRESOURCES
00000000   PWRM_PWRM_USETIMER
00000001   QUE$
ffffffff   RESET_VECTOR
8812ad18   RTA_D_fromHost
8812ad20   RTA_D_logval
8812ad30   RTA_D_stsval
8812ad1c   RTA_D_toHost
00000000   RTDX$
00000408   RTDX_BUFMEMSIZE
8812ae84   RTDX_DATAMEMSEG
00000000   RTDX_MODE
00000000   RTDX_USERTDX
00000000   RTDX_USERTEXECUTION
00000000   SEM$
00000000   SIO$
00000000   STS$
8812b5e0   STS_A_TABBEG
8812b5f0   STS_A_TABEND
8812634c   STS_F_add
88126320   STS_F_delta
88126368   STS_F_reset
00000001   SWI$
8812b7f0   SWI_A_TABBEG
8812b81c   SWI_A_TABEND
00000001   SWI_A_TABLEN
8812ad8c   SWI_D_curfxn
8812ad7c   SWI_D_curmask
8812ad88   SWI_D_curmbox
8812ad80   SWI_D_curset
8812ad78   SWI_D_execaddr
8812ad94   SWI_D_inswi
8812ad84   SWI_D_lock
8812ad90   SWI_D_rdybeg
8812ad98   SWI_D_rdytab
8812ad74   SWI_D_runaddr
00000000   SWI_EHOOKFXN
88121124   SWI_EXECFXN
88120f40   SWI_F_enable
88121124   SWI_F_exec
8812114c   SWI_F_iexec
88120fb0   SWI_F_post
881211cc   SWI_F_run
00000000   SWI_IHOOKFXN
881211cc   SWI_RUNFXN
00000001   SYS$
8812b81c   SYS$config
881265a0   SYS_ABORTFXN
88126720   SYS_ERRORFXN
88126740   SYS_EXITFXN
88126440   SYS_PUTCFXN
8812b830   TRC_R_mask
8812b82c   TRC_cinit
00000001   TSK$
00000000   TSK_NUM_HOOKS
00000001   TSK_PRIORITY
00000000   TSK_READYFXN
8812ae84   TSK_STACKSEG
00000400   TSK_STACKSIZE
00000000   TSK_SWITCHFXN
881265e0   TSK_VCREATEFXN
881265e0   TSK_VDELETEFXN
881265e0   TSK_VEXITFXN
8812b52c   TSK_idle
00000000   TSK_idle$ord
00000000   TSK_idle$pri
8812a3a8   TSK_idle$stack
8812a740   TSK_idle$stkptr
00000000   TSK_idle$tsk
00000001   UDEV$
8812b6b4   UDEV_dsplink$device
8812b6a8   UDEV_dsplink$obj
8812b58c   ZCPYLINK_TSK_OBJ
00000000   ZCPYLINK_TSK_OBJ$ord
0000000f   ZCPYLINK_TSK_OBJ$pri
8812a7a8   ZCPYLINK_TSK_OBJ$stack
8812ab40   ZCPYLINK_TSK_OBJ$stkptr
00000000   ZCPYLINK_TSK_OBJ$tsk
881258c0   _ATM_andi
881258c0   _ATM_andu
881258d0   _ATM_cleari
881258d0   _ATM_clearu
881258e0   _ATM_deci
881258e0   _ATM_decu
881258f0   _ATM_inci
881258f0   _ATM_incu
88125904   _ATM_ori
88125904   _ATM_oru
88125914   _ATM_seti
88125914   _ATM_setu
88124614   _BCACHE_bootInit
88124694   _BCACHE_getMar
88124644   _BCACHE_getSize
88124e50   _BCACHE_inv
88125f30   _BCACHE_invL1pAll
88124614   _BCACHE_setCacheToSram
881245c4   _BCACHE_setMar
88124580   _BCACHE_setSize
88125f40   _BCACHE_wait
88124e40   _BCACHE_wb
88125f20   _BCACHE_wbAll
88124e2c   _BCACHE_wbInv
88125f0c   _BCACHE_wbInvAll
88129280   _BIOS_init
88129500   _BIOS_start
881264cc   _C62_clearIFR
881264a0   _C62_disableIER
88122d28   _C62_dispatchPlug
881264b8   _C62_enableIER
88122d20   _C62_plug
881264cc   _C64_clearIFR
881264a0   _C64_disableIER
88122d28   _C64_dispatchPlug
881264b8   _C64_enableIER
88122d20   _C64_plug
ffffffff   _CACHE_L1D
ffffffff   _CACHE_L1P
ffffffff   _CACHE_L2
00050910   _CLK_COUNTSPMS
8812aec8   _CLK_DFLTMICROSECS
8812acf0   _CLK_D_countspms
8812ace4   _CLK_D_dirty
8812aecc   _CLK_D_microseconds
8812ace8   _CLK_D_prd
8812acec   _CLK_D_tddr
88123d00   _CLK_F_itime
00004b00   _CLK_PRD
49038000   _CLK_REGS
00000000   _CLK_TDDR
00000000   _CLK_TIMERNUM
00000001   _CLK_USETIMER
88126760   _CLK_gethtime
49038000   _CLK_gptimer
88129278   _CLK_gptimer_enablemask
8812acd4   _CLK_htimeDiv
8812acd8   _CLK_htimeMult
8812aed8   _CLK_htimePerLtime
8812910c   _CLK_inputClock
88123d00   _CLK_itime
8812acdc   _CLK_ltimeDiv
8812ace0   _CLK_ltimeMult
881246ec   _CLK_reconfig
881229a4   _CLK_start
88122940   _CLK_stop
8812ae84   _DDR2
88110540   _DDR2_base
00010000   _DDR2_length
88129268   _DEV_D_devinit
8812ae88   _DEV_devinit
881296e0   _DEV_init
88125020   _DEV_match
88125320   _DEV_mkframe
88126080   _DEV_rmframe
881101e0   _DIO_ctrl
88129b20   _DIO_init
8810b3c4   _DIO_tskCallback
88129130   _DIO_tskDynamicFxns
8810b2c8   _DIO_tskIdle
8810b224   _DIO_tskIssue
8810b208   _DIO_tskReady
8810b1e0   _DIO_tskReclaim
88129264   _DSPLINKDATA_ctrlPtr
8810ff20   _DSPLINKDATA_init
8810e860   _DSPLINKIPS_init
ffffffff   _DSPLINKMEM
8812926c   _DSPLINKMQT_ctrlPtr
8810ff60   _DSPLINKMQT_init
88128ea8   _DSPLINKPOOL_ctrlPtr
8810f2e0   _DSPLINKPOOL_init
8810e7a0   _DSPLINK_init
8812b600   _DSPLINK_shmBaseAddress
8812b608   _DSPLINK_shmBaseAddress_pad
88129230   _DSPLINK_terminateFxn
881066f4   _DSPLINK_terminateISR
0000000a   _EVENT10
00000064   _EVENT100
00000065   _EVENT101
00000066   _EVENT102
00000067   _EVENT103
00000068   _EVENT104
00000069   _EVENT105
0000006a   _EVENT106
0000006b   _EVENT107
0000006c   _EVENT108
0000006d   _EVENT109
0000000b   _EVENT11
0000006e   _EVENT110
0000006f   _EVENT111
00000070   _EVENT112
00000071   _EVENT113
00000072   _EVENT114
00000073   _EVENT115
00000074   _EVENT116
00000075   _EVENT117
00000076   _EVENT118
00000077   _EVENT119
0000000c   _EVENT12
00000078   _EVENT120
00000079   _EVENT121
0000007a   _EVENT122
0000007b   _EVENT123
0000007c   _EVENT124
0000007d   _EVENT125
0000007e   _EVENT126
0000007f   _EVENT127
0000000d   _EVENT13
0000000e   _EVENT14
0000000f   _EVENT15
00000010   _EVENT16
00000011   _EVENT17
00000012   _EVENT18
00000013   _EVENT19
00000014   _EVENT20
00000015   _EVENT21
00000016   _EVENT22
00000017   _EVENT23
00000018   _EVENT24
00000019   _EVENT25
0000001a   _EVENT26
0000001b   _EVENT27
0000001c   _EVENT28
0000001d   _EVENT29
0000001e   _EVENT30
0000001f   _EVENT31
00000020   _EVENT32
00000021   _EVENT33
00000022   _EVENT34
00000023   _EVENT35
00000024   _EVENT36
00000025   _EVENT37
00000026   _EVENT38
00000027   _EVENT39
00000004   _EVENT4
00000028   _EVENT40
00000029   _EVENT41
0000002a   _EVENT42
0000002b   _EVENT43
0000002c   _EVENT44
0000002d   _EVENT45
0000002e   _EVENT46
0000002f   _EVENT47
00000030   _EVENT48
00000031   _EVENT49
00000005   _EVENT5
00000032   _EVENT50
00000033   _EVENT51
00000034   _EVENT52
00000035   _EVENT53
00000036   _EVENT54
00000037   _EVENT55
00000038   _EVENT56
00000039   _EVENT57
0000003a   _EVENT58
0000003b   _EVENT59
00000006   _EVENT6
0000003c   _EVENT60
0000003d   _EVENT61
0000003e   _EVENT62
0000003f   _EVENT63
00000040   _EVENT64
00000041   _EVENT65
00000042   _EVENT66
00000043   _EVENT67
00000044   _EVENT68
00000045   _EVENT69
00000007   _EVENT7
00000046   _EVENT70
00000047   _EVENT71
00000048   _EVENT72
00000049   _EVENT73
0000004a   _EVENT74
0000004b   _EVENT75
0000004c   _EVENT76
0000004d   _EVENT77
0000004e   _EVENT78
0000004f   _EVENT79
00000008   _EVENT8
00000050   _EVENT80
00000051   _EVENT81
00000052   _EVENT82
00000053   _EVENT83
00000054   _EVENT84
00000055   _EVENT85
00000056   _EVENT86
00000057   _EVENT87
00000058   _EVENT88
00000059   _EVENT89
00000009   _EVENT9
0000005a   _EVENT90
0000005b   _EVENT91
0000005c   _EVENT92
0000005d   _EVENT93
0000005e   _EVENT94
0000005f   _EVENT95
00000060   _EVENT96
00000061   _EVENT97
00000062   _EVENT98
00000063   _EVENT99
88120a30   _EXC_clearLastStatus
88122f00   _EXC_dispatch
881208b4   _EXC_exceptionHandler
8812aeac   _EXC_exceptionHook
88120880   _EXC_external
8812aeb4   _EXC_externalHook
88120860   _EXC_getLastStatus
88120820   _EXC_init
88120574   _EXC_internal
8812aeb0   _EXC_internalHook
88120540   _EXC_nmi
8812aeb8   _EXC_nmiHook
8812ae60   _EXC_returnPtr
881230c4   _EXC_setReturnPtr
881291ac   _EXC_status
8812ae58   _EXC_sysTrapTable
881265e0   _FXN_F_nop
881260e4   _FXN_F_run
88126120   _FXN_F_zero
00000000   _GBL_CACHE
88124864   _GBL_cacheInit64P
8812ad4c   _GBL_clkIn
8812ad50   _GBL_freq
88126600   _GBL_getVersion
8812ad48   _GBL_procId
8812aee0   _GIO
8812921c   _GIO_ATTRS
881291bc   _GIO_CONFIG
88121dc0   _GIO_create
88124b60   _GIO_delete
88129ae0   _GIO_init
881234a0   _GIO_submit
88110248   _HAL_exit
88110220   _HAL_init
8810e238   _HAL_intClear
8810e20c   _HAL_intDisable
8810e1e0   _HAL_intEnable
8810cca4   _HAL_intInit
8810cb80   _HAL_intRegister
8810e1d0   _HAL_intSend
8810e160   _HAL_intWaitClear
88126620   _HOOK_setenv
8810f380   _HOSTclose
8810dd60   _HOSTlseek
8810e260   _HOSTopen
8810e340   _HOSTread
8810d0a0   _HOSTrename
8810e9e0   _HOSTunlink
8810eaa0   _HOSTwrite
88100080   _HST_A_TABBEG
88100080   _HST_A_TABEND
881291ec   _HWI_ATTRS
00004000   _HWI_CFGDISPATCHED
8812aea0   _HWI_D_inhwi
8812ae94   _HWI_D_spsave
88120a60   _HWI_F_dispatch
0000000a   _HWI_INT10
0000000b   _HWI_INT11
0000000c   _HWI_INT12
0000000d   _HWI_INT13
0000000e   _HWI_INT14
0000000f   _HWI_INT15
00000004   _HWI_INT4
00000005   _HWI_INT5
00000006   _HWI_INT6
00000007   _HWI_INT7
00000008   _HWI_INT8
00000009   _HWI_INT9
00000001   _HWI_NMI
00000002   _HWI_RESERVED0
00000003   _HWI_RESERVED1
00000000   _HWI_RESET
88127778   _HWI_STKBOTTOM
88126780   _HWI_STKTOP
8812ae94   _HWI_data
88126140   _HWI_disable
881259c0   _HWI_dispatchPlug
8812aba8   _HWI_dispatchTab
88126158   _HWI_enable
88125a40   _HWI_eventMap
8812616c   _HWI_restore
88126640   _IDL_loop
88126660   _IOM_mdNotImpl
88105db4   _IPS_clearReserved
88105d00   _IPS_exit
88105ba0   _IPS_init
88105660   _IPS_isNotReserved
881059c0   _IPS_notify
88105680   _IPS_register
88105634   _IPS_setReserved
881052e0   _IPS_unregister
ffffffff   _IRAM
8812ae18   _KNL_alarm
88124920   _KNL_check
8812ae3c   _KNL_curqueue
8812ae2c   _KNL_curtask
8812ae34   _KNL_curtime
88128da0   _KNL_dummy
88125120   _KNL_enter
881250e0   _KNL_exit
881249e8   _KNL_idle
8812ae54   _KNL_idlefxn
8812ae20   _KNL_inactive
88125ac0   _KNL_ipost
88124a10   _KNL_max
8812ae40   _KNL_maxqueue
88125b40   _KNL_post
8812ae30   _KNL_prevtask
8812ae24   _KNL_priority
88128d00   _KNL_queues
881241c0   _KNL_ready
88122300   _KNL_run
88123f00   _KNL_saveIsrFrame
8812ae28   _KNL_set
8812ae1c   _KNL_setpri
881253c0   _KNL_start
8812b7f0   _KNL_swi
8812ae38   _KNL_swiptr
88123fac   _KNL_switch
8812ae48   _KNL_tcreatefxn
8812ae4c   _KNL_tdeletefxn
881232ac   _KNL_tick
8812ae50   _KNL_treadyfxn
8812ae44   _KNL_tswitchfxn
8812ae10   _KNL_wFlag
8812ae14   _KNL_wList
ffffffff   _L1DSRAM
881261a0   _LCK_create
88125be0   _LCK_pend
88125bc0   _LCK_post
8812b7c0   _LOG_A_TABBEG
8812b7f0   _LOG_A_TABEND
00000002   _LOG_A_TABLEN
8812acb4   _LOG_D_system
88125c40   _LOG_event
88126680   _LOG_printf
8812b7c0   _LOG_system
8812aee8   _MEM
8812ad54   _MEM_D_NUMSEGMENTS
8812ad5c   _MEM_D_freelist
8812ad60   _MEM_D_lockaddr
8812ad58   _MEM_D_memtab
8812ad64   _MEM_D_unlockaddr
88122b40   _MEM_alloc
88122540   _MEM_free
881299e0   _MEM_init
8812ae78   _MEM_memtab
88125fc0   _MEM_valloc
88129240   _MPCS_GlobalLock
881051a0   _MPCS_close
88104ba0   _MPCS_create
88129238   _MPCS_csObj
88129234   _MPCS_ctrlPtr
881046e0   _MPCS_delete
881044c8   _MPCS_enter
88107960   _MPCS_exit
881077ec   _MPCS_init
881043a0   _MPCS_leave
88104340   _MPCS_open
88129244   _MPLIST_ctrlPtr
8810cb20   _MPLIST_exit
8810c9a0   _MPLIST_init
88129248   _MPLIST_mpcsObj
8812aeec   _MSGQ
8812a2f8   _MSGQ_ATTRS
8812a308   _MSGQ_LOCATEASYNCATTRS
8812a304   _MSGQ_LOCATEATTRS
881251a0   _MSGQ_alloc
88125460   _MSGQ_close
88128f78   _MSGQ_config
881264e0   _MSGQ_free
88125500   _MSGQ_get
881295a0   _MSGQ_init
88124e60   _MSGQ_locateLocal
88124300   _MSGQ_open
881255a0   _MSGQ_put
88124c60   _MSGQ_startup
8812924c   _NOTIFY_ctrlPtr
8810f220   _NOTIFY_init
8810dcf8   _NOTIFY_notify
88129250   _NOTIFY_numIps
8810dc94   _NOTIFY_register
8810dc40   _NOTIFY_unregister
88125cc0   _OBJ_create
88126200   _OBJ_delete
88129b00   _OBJ_init
881290a0   _OBJ_segtab
88129068   _OBJ_table
88100080   _PIP_A_TABBEG
88100080   _PIP_A_TABEND
8812aef0   _POOL
ffffffff   _POOLMEM
88128fa0   _POOL_config
88129800   _POOL_init
88106668   _POOL_open
8812acf4   _PRD_D_tick
8812b838   _PRD_clock
88128abc   _QUE_ATTRS
88126520   _QUE_create
88126560   _QUE_get
88126588   _QUE_put
ffffffff   _RESET_VECTOR
88129254   _RingIO_ctrlPtr
88103140   _RingIO_exit
88102f98   _RingIO_init
88129258   _RingIO_mpcsObj
88128f90   _SCALE_Pools
88129224   _SEM_ATTRS
88125d40   _SEM_create
881266a0   _SEM_delete
881262c0   _SEM_pend
88126260   _SEM_pendBinary
88122740   _SEM_pendEnterKnl
88124f40   _SEM_post
88124f40   _SEM_postBinary
88125640   _SEM_postEnterKnl
8810e934   _SHMDRV_handshake
8810e920   _SHMDRV_init
8812914c   _SIO_ATTRS
88121ac0   _SIO_create
881232c0   _SIO_delete
88125820   _SIO_issue
88125260   _SIO_reclaim
8812a358   _SMAPOOL_FXNS
881091cc   _SMAPOOL_alloc
88109014   _SMAPOOL_free
88109008   _SMAPOOL_init
88108ee0   _SMAPOOL_open
8812b5e0   _STS_A_TABBEG
8812b5f0   _STS_A_TABEND
8812634c   _STS_add
88126320   _STS_delta
88126368   _STS_reset
881266c0   _STS_set
88129180   _SWI_ATTRS
8812ad8c   _SWI_D_curfxn
8812ad7c   _SWI_D_curmask
8812ad80   _SWI_D_curset
8812ad78   _SWI_D_execaddr
8812ad94   _SWI_D_inswi
8812ad84   _SWI_D_lock
8812ad90   _SWI_D_rdybeg
8812ad74   _SWI_D_runaddr
88126380   _SWI_andn
88126380   _SWI_andnHook
88125dc0   _SWI_create
8812ad74   _SWI_data
881266e0   _SWI_delete
88120fb0   _SWI_post
881256e0   _SWI_setattrs
8812ad68   _SYS
8812b200   _SYS_PUTCBEG
8812b3ff   _SYS_PUTCEND
881263e0   _SYS_abort
88126020   _SYS_error
88125780   _SYS_exit
88129110   _SYS_exitStack
8812aed0   _SYS_exitStackPtr
8812aed4   _SYS_exitStackTop
88126708   _SYS_one
88126700   _SYS_zero
88128f2a   _SamplePoolParams
8812b830   _TRC_R_mask
8812aec4   _TSK
88106af0   _TSKSCALE_create
881069a4   _TSKSCALE_delete
88106720   _TSKSCALE_execute
8812900c   _TSK_ATTRS
88129028   _TSK_config
88121780   _TSK_create
88123820   _TSK_delete
88125e64   _TSK_disable
88125e40   _TSK_enable
88124440   _TSK_exit
8812b52c   _TSK_idle
88129a80   _TSK_init
8812aebc   _TSK_nTasks
8812aec0   _TSK_pid
88123b10   _TSK_setpri
88123d60   _TSK_setup
88124ae4   _TSK_startup
88129048   _TSK_timerSem
881265a0   _UTL_doAbort
88126720   _UTL_doError
88126440   _UTL_doPutc
88126740   _UTL_halt
88128ff4   _ZCPYDATA_FXNS
8812a388   _ZCPYDATA_defaultChanParams
88128fa8   _ZCPYDATA_devObj
8810fd20   _ZCPYDATA_init
88104290   _ZCPYDATA_tskFxn
8812b58c   _ZCPYLINK_TSK_OBJ
88129168   _ZCPYMQT_FXNS
88110280   _ZCPYMQT_init
88128cfc   __BCACHE_emifAddr
88129204   __BCACHE_readTable
8812b400   __CIOBUF_
88123d1c   __CLK_lat1beg
88123d40   __CLK_lat1end
8812aedc   __DEV_D_NUMINITFXNS
8812ae90   __DEV_NUMINITFXNS
88105f80   __DSPLINK_init
88125940   __GIO_iomCallback
8812ad70   __HOOK_NUMHOOKS
8812ad6c   __HOOK_knlId
88120a60   __HWI_lat1beg
88120be8   __HWI_lat1end
88120be8   __HWI_lat2beg
88120dc4   __HWI_lat2end1
88120d50   __HWI_lat2end2
88120de0   __HWI_lat3beg
88120d80   __HWI_lat3end2
8812496c   __KNL_lat1beg
881249e8   __KNL_lat1end
88125c40   __LOG_lat1beg
881290e4   __MEM_mutex
881073e0   __MPCS_open
48004000   __PWRM_CM_BASEADDR
5d000000   __PWRM_IVAMMU_BASEADDR
48306000   __PWRM_PRM_BASEADDR
48002000   __PWRM_SCM_BASEADDR
00000000   __PWRM_TIMERBASEADDR
00000020   __PWRM_TIMERINPUTCLK
00000000   __PWRM_TIMERINTRMASK
0000000a   __PWRM_TIMERPERIOD
00000000   __PWRM_USETIMER
88126560   __QUE_lat1beg
88126580   __QUE_lat1end
88126588   __QUE_lat2beg
88126594   __QUE_lat2end
88102da0   __RingIO_callNotifier
88102cb4   __RingIO_checkNotifier
8810264c   __RingIO_getContiguousDataSize
88101660   __RingIO_getFirstAcquiredAttr
8810032c   __RingIO_getFirstAttr
88100890   __RingIO_initInstance
88101710   __RingIO_invalidateDataBuffer
88102760   __RingIO_readerAcquire
881024b4   __RingIO_readerCancel
88101f90   __RingIO_readerFlush
88101bc4   __RingIO_readerGetvAttribute
881017d8   __RingIO_readerRelease
88100424   __RingIO_releaseAttribute
88100e88   __RingIO_updateAttributes
88101420   __RingIO_writerAcquire
88101064   __RingIO_writerCancel
88100954   __RingIO_writerFlush
88100510   __RingIO_writerRelease
88100080   __RingIO_writerSetvAttribute
88123660   __SEM_dopost
88127780   __STACK_END
00001000   __STACK_SIZE
881210b8   __SWI_lat1beg
88121164   __SWI_lat1end
88121168   __SWI_lat2beg
881211c8   __SWI_lat2end
88120f40   __SWI_lat3beg
88120fac   __SWI_lat3end
881290bc   __TSK_mutex
88129218   ___TI_enable_exit_profile_output
ffffffff   ___TI_pprof_out_hndl
ffffffff   ___TI_prof_data_size
ffffffff   ___TI_prof_data_start
ffffffff   ___binit__
8812aba8   ___bss__
ffffffff   ___c_args__
88127780   ___cinit__
8812b600   ___data__
8812b684   ___edata__
8812aefe   ___end__
88110540   ___etext__
8810ffa0   ___isinf
ffffffff   ___pinit__
88100080   ___text__
8810c1a0   __addd
88124080   __auto_init
8810ece0   __c6xabi_divu
8810f740   __c6xabi_remu
8810eb60   __cleanup
88129210   __cleanup_ptr
8810e420   __cmpd
88129f90   __ctypes_
88107f40   __divd
881097e0   __divf
8810f420   __divli
8810ece0   __divu
8810cf00   __divul
8810b460   __divull
8810eda0   __doflush
88129214   __dtors_ptr
8810f920   __fixdi
8810f600   __fixdli
8810f9a0   __fixfu
8810fa20   __fltlid
88110020   __fltuf
8810c3a0   __frcaddd
8810de60   __frcmpyd
88110060   __frcmpyd_div
8810fda0   __frcmpyf
881100a0   __frcmpyf_div
88128ab8   __ft_end
88128798   __ftable
8810faa0   __llshl
881100e0   __llshru
8812925c   __lock
8810b6c0   __mpyd
8810c5a0   __mpyf
88110120   __negd
881102c0   __negll
881102e0   __nop
881093a0   __printfi
88110340   __register_lock
88110360   __register_unlock
88110160   __remli
8810f740   __remu
8810fb20   __renormd
88126780   __stack
8810fe00   __subcull
881101a0   __subd
88128978   __tmpnams
88129260   __unlock
8810e060   __wrt_ok
8810e500   _atoi
88129920   _c_int00
88122298   _calloc
8810e5e0   _close
8810db20   _fclose
8810d780   _fputc
8810a420   _fputs
88122060   _free
8810ee60   _fseek
8810ef20   _lseek
8810efe0   _ltoa
8810d404   _main
88122088   _malloc
881221b8   _memalign
8810fe60   _memccpy
8810f880   _memcpy
8810e6c0   _memset
88128f28   _mqtParams
88129272   _numTransfers
8810fba0   _printf
8810d780   _putc
8810fc20   _readmsg
881220ec   _realloc
88110380   _remove
8810d220   _setvbuf
8812b7d8   _trace
88128f50   _transports
8810fca0   _unlink
8810f0a0   _write
8810fec0   _writemsg
88129270   _xferBufSize
ffffffff   binit
88127780   cinit
8812b684   edata
8812aefe   end
88110540   etext
8812b000   hwi0
8812b020   hwi1
8812b140   hwi10
8812b160   hwi11
8812b180   hwi12
8812b1a0   hwi13
8812b1c0   hwi14
8812b1e0   hwi15
8812b040   hwi2
8812b060   hwi3
8812b080   hwi4
8812b0a0   hwi5
8812b0c0   hwi6
8812b0e0   hwi7
8812b100   hwi8
8812b120   hwi9
ffffffff   pinit
8812b7d8   trace
8812b700   trace$buf
00000001   trace$datatype
00000000   trace$log
00000020   trace$size


GLOBAL SYMBOLS: SORTED BY Symbol Address 

address    name
--------   ----
00000000   BUF$
00000000   CLK_PRDHIGH
00000000   CLK_RESETTIMER
00000000   CLK_TDDR
00000000   CLK_TDDRHIGH
00000000   CLK_TIMERNUM
00000000   DEV$
00000000   DGN$
00000000   DHL$
00000000   DHL_gChannelsAvailable
00000000   DIO_NUMSWIBASE
00000000   DIO_NUMTSKBASE
00000000   DIO_STATIC
00000000   DPI$
00000000   ECM$
00000000   ECM_ENABLE
00000000   GBL_BCACHEREADADDR0
00000000   GBL_BCACHEREADADDR1
00000000   GBL_BCACHEREADADDR2
00000000   GBL_BIGENDIAN
00000000   GBL_CACHE
00000000   GBL_CALLCSLCFGINIT
00000000   GBL_ENABLEINST
00000000   GBL_ENABLE_SK
00000000   GBL_GEMTRUECOMPEN
00000000   GBL_L2MAR0_31
00000000   GBL_L2MAR160_191
00000000   GBL_L2MAR192_223
00000000   GBL_L2MAR224_255
00000000   GBL_L2MAR32_63
00000000   GBL_L2MAR64_95
00000000   GBL_L2MAR96_127
00000000   GBL_NULL
00000000   GBL_PROCID
00000000   GBL_ROM
00000000   GBL_SUPPORTCSL
00000000   GBL_USERINIT
00000000   GIO$
00000000   HOOK$
00000000   HOOK_KNLID
00000000   HST$
00000000   HST_DSM
00000000   HST_MAXFRAMESET
00000000   HST_RTDX
00000000   HWI_GENERATE_RESET_VEC
00000000   HWI_INT10$hwi
00000000   HWI_INT11$hwi
00000000   HWI_INT12$hwi
00000000   HWI_INT13$hwi
00000000   HWI_INT14$hwi
00000000   HWI_INT15$hwi
00000000   HWI_INT4$hwi
00000000   HWI_INT5$hwi
00000000   HWI_INT6$hwi
00000000   HWI_INT7$hwi
00000000   HWI_INT8$hwi
00000000   HWI_INT9$hwi
00000000   HWI_NMI$hwi
00000000   HWI_POLARITYMASK
00000000   HWI_RESERVED0$hwi
00000000   HWI_RESERVED1$hwi
00000000   HWI_RESET
00000000   HWI_RESET$hwi
00000000   HWI_ZEROTAB
00000000   IDL$
00000000   IDL_CALIBRERROR
00000000   IDL_CALIBRFXN
00000000   IDL_USECLKIDLTIME
00000000   KNL_swi$ord
00000000   KNL_swi$pri
00000000   KNL_swi$sts$unittype
00000000   KNL_swi$swi
00000000   LOG_system$datatype
00000000   LOG_system$log
00000000   MBX$
00000000   MEM_NULL
00000000   MEM_USEMPC
00000000   OBJ$
00000000   PIP$
00000000   PIP_A_TABLEN
00000000   PIP_gNextId
00000000   PIP_gNumEmbed
00000000   PRD_A_TABLEN
00000000   PRD_SWIHANDLE
00000000   PWRM_PWRM_CAPSMASK
00000000   PWRM_PWRM_ENABLE
00000000   PWRM_PWRM_LOADENABLE
00000000   PWRM_PWRM_RESOURCETRACKING
00000000   PWRM_PWRM_SCALING
00000000   PWRM_PWRM_TIMERIDNUM
00000000   PWRM_PWRM_TIMERINTRMASK
00000000   PWRM_PWRM_TIMERWUGENMASK
00000000   PWRM_PWRM_USERRESOURCES
00000000   PWRM_PWRM_USETIMER
00000000   RTDX$
00000000   RTDX_MODE
00000000   RTDX_USERTDX
00000000   RTDX_USERTEXECUTION
00000000   SEM$
00000000   SIO$
00000000   STS$
00000000   SWI_EHOOKFXN
00000000   SWI_IHOOKFXN
00000000   TSK_NUM_HOOKS
00000000   TSK_READYFXN
00000000   TSK_SWITCHFXN
00000000   TSK_idle$ord
00000000   TSK_idle$pri
00000000   TSK_idle$tsk
00000000   ZCPYLINK_TSK_OBJ$ord
00000000   ZCPYLINK_TSK_OBJ$tsk
00000000   _CLK_TDDR
00000000   _CLK_TIMERNUM
00000000   _GBL_CACHE
00000000   _HWI_RESET
00000000   __PWRM_TIMERBASEADDR
00000000   __PWRM_TIMERINTRMASK
00000000   __PWRM_USETIMER
00000000   trace$log
00000001   BUF_ENABLED
00000001   CLK$
00000001   CLK_CALDIV
00000001   CLK_CALMULT
00000001   CLK_ENABLEHTIME
00000001   CLK_HTIMEDIV
00000001   CLK_HTIMEMULT
00000001   CLK_LTIMEDIV
00000001   CLK_POWERENABLE
00000001   CLK_USETIMER
00000001   DIO$
00000001   GBL$
00000001   GBL_L2CONFIGURE
00000001   GBL_L2MODE
00000001   GBL_boot
00000001   HST_NONE
00000001   HWI$
00000001   HWI_ENABLE_EXC
00000001   HWI_NMI
00000001   ISRC$
00000001   KNL_swi$dorta
00000001   KNL_swi$sts$filtmaxmult
00000001   KNL_swi$sts$filtsummult
00000001   LCK$
00000001   LOG$
00000001   LOG_ENABLED
00000001   MEM$
00000001   MEM_gNumHeap
00000001   MSGQ$
00000001   MSGQ_USEMSGQ
00000001   POOL$
00000001   POOL_USEPOOL
00000001   PRD$
00000001   PRD_SCALAR
00000001   PWRM$
00000001   PWRM_PWRM_NUMSLOTS
00000001   QUE$
00000001   SWI$
00000001   SWI_A_TABLEN
00000001   SYS$
00000001   TSK$
00000001   TSK_PRIORITY
00000001   UDEV$
00000001   _CLK_USETIMER
00000001   _HWI_NMI
00000001   trace$datatype
00000002   HWI_RESERVED0
00000002   KNL_swi$sts$filter
00000002   LOG_A_TABLEN
00000002   _HWI_RESERVED0
00000002   _LOG_A_TABLEN
00000003   GBL_L1PMODE
00000003   HWI_RESERVED1
00000003   _HWI_RESERVED1
00000004   EVENT4
00000004   HWI_INT4
00000004   _EVENT4
00000004   _HWI_INT4
00000005   CLK_COUNTSPMSHIGH
00000005   CLK_TIMMODE
00000005   EVENT5
00000005   HWI_INT5
00000005   _EVENT5
00000005   _HWI_INT5
00000006   EVENT6
00000006   HWI_INT6
00000006   _EVENT6
00000006   _HWI_INT6
00000007   EVENT7
00000007   GBL_L1DMODE
00000007   HWI_INT7
00000007   _EVENT7
00000007   _HWI_INT7
00000008   EVENT8
00000008   HWI_INT8
00000008   _EVENT8
00000008   _HWI_INT8
00000009   EVENT9
00000009   HWI_INT9
00000009   _EVENT9
00000009   _HWI_INT9
0000000a   EVENT10
0000000a   HWI_INT10
0000000a   PWRM_PWRM_CLKTICKSPERSLOT
0000000a   _EVENT10
0000000a   _HWI_INT10
0000000a   __PWRM_TIMERPERIOD
0000000b   EVENT11
0000000b   HWI_INT11
0000000b   _EVENT11
0000000b   _HWI_INT11
0000000c   EVENT12
0000000c   HWI_INT12
0000000c   _EVENT12
0000000c   _HWI_INT12
0000000d   EVENT13
0000000d   HWI_INT13
0000000d   _EVENT13
0000000d   _HWI_INT13
0000000e   EVENT14
0000000e   HWI_INT14
0000000e   _EVENT14
0000000e   _HWI_INT14
0000000f   EVENT15
0000000f   HWI_INT15
0000000f   ZCPYLINK_TSK_OBJ$pri
0000000f   _EVENT15
0000000f   _HWI_INT15
00000010   EVENT16
00000010   _EVENT16
00000011   EVENT17
00000011   _EVENT17
00000012   EVENT18
00000012   _EVENT18
00000013   EVENT19
00000013   _EVENT19
00000014   EVENT20
00000014   _EVENT20
00000015   EVENT21
00000015   _EVENT21
00000016   EVENT22
00000016   _EVENT22
00000017   EVENT23
00000017   _EVENT23
00000018   EVENT24
00000018   _EVENT24
00000019   EVENT25
00000019   _EVENT25
0000001a   EVENT26
0000001a   _EVENT26
0000001b   EVENT27
0000001b   _EVENT27
0000001c   EVENT28
0000001c   _EVENT28
0000001d   EVENT29
0000001d   _EVENT29
0000001e   EVENT30
0000001e   _EVENT30
0000001f   EVENT31
0000001f   _EVENT31
00000020   CLK_TCR
00000020   EVENT32
00000020   _EVENT32
00000020   __PWRM_TIMERINPUTCLK
00000020   trace$size
00000021   EVENT33
00000021   _EVENT33
00000022   EVENT34
00000022   _EVENT34
00000023   EVENT35
00000023   _EVENT35
00000024   EVENT36
00000024   _EVENT36
00000025   EVENT37
00000025   _EVENT37
00000026   EVENT38
00000026   _EVENT38
00000027   EVENT39
00000027   _EVENT39
00000028   EVENT40
00000028   _EVENT40
00000029   EVENT41
00000029   _EVENT41
0000002a   EVENT42
0000002a   _EVENT42
0000002b   EVENT43
0000002b   _EVENT43
0000002c   EVENT44
0000002c   _EVENT44
0000002d   EVENT45
0000002d   _EVENT45
0000002e   EVENT46
0000002e   _EVENT46
0000002f   EVENT47
0000002f   _EVENT47
00000030   EVENT48
00000030   _EVENT48
00000031   EVENT49
00000031   _EVENT49
00000032   EVENT50
00000032   _EVENT50
00000033   EVENT51
00000033   _EVENT51
00000034   EVENT52
00000034   _EVENT52
00000035   EVENT53
00000035   _EVENT53
00000036   EVENT54
00000036   _EVENT54
00000037   EVENT55
00000037   _EVENT55
00000038   EVENT56
00000038   _EVENT56
00000039   EVENT57
00000039   _EVENT57
0000003a   EVENT58
0000003a   _EVENT58
0000003b   EVENT59
0000003b   _EVENT59
0000003c   EVENT60
0000003c   _EVENT60
0000003d   EVENT61
0000003d   _EVENT61
0000003e   EVENT62
0000003e   GBL_DSPTYPE
0000003e   _EVENT62
0000003f   EVENT63
0000003f   _EVENT63
00000040   EVENT64
00000040   LOG_system$size
00000040   _EVENT64
00000041   EVENT65
00000041   _EVENT65
00000042   EVENT66
00000042   GBL_FOOTPRINT
00000042   _EVENT66
00000043   EVENT67
00000043   _EVENT67
00000044   EVENT68
00000044   _EVENT68
00000045   EVENT69
00000045   _EVENT69
00000046   EVENT70
00000046   _EVENT70
00000047   EVENT71
00000047   _EVENT71
00000048   EVENT72
00000048   _EVENT72
00000049   EVENT73
00000049   _EVENT73
0000004a   EVENT74
0000004a   _EVENT74
0000004b   EVENT75
0000004b   _EVENT75
0000004c   EVENT76
0000004c   _EVENT76
0000004d   EVENT77
0000004d   _EVENT77
0000004e   EVENT78
0000004e   _EVENT78
0000004f   EVENT79
0000004f   _EVENT79
00000050   EVENT80
00000050   _EVENT80
00000051   EVENT81
00000051   _EVENT81
00000052   EVENT82
00000052   _EVENT82
00000053   EVENT83
00000053   _EVENT83
00000054   EVENT84
00000054   _EVENT84
00000055   EVENT85
00000055   _EVENT85
00000056   EVENT86
00000056   _EVENT86
00000057   EVENT87
00000057   _EVENT87
00000058   EVENT88
00000058   _EVENT88
00000059   EVENT89
00000059   _EVENT89
0000005a   EVENT90
0000005a   _EVENT90
0000005b   EVENT91
0000005b   _EVENT91
0000005c   EVENT92
0000005c   _EVENT92
0000005d   EVENT93
0000005d   _EVENT93
0000005e   EVENT94
0000005e   _EVENT94
0000005f   EVENT95
0000005f   _EVENT95
00000060   EVENT96
00000060   _EVENT96
00000061   EVENT97
00000061   _EVENT97
00000062   EVENT98
00000062   _EVENT98
00000063   EVENT99
00000063   _EVENT99
00000064   EVENT100
00000064   PIP_OBJSIZE
00000064   _EVENT100
00000065   EVENT101
00000065   _EVENT101
00000066   EVENT102
00000066   _EVENT102
00000067   EVENT103
00000067   _EVENT103
00000068   EVENT104
00000068   _EVENT104
00000069   EVENT105
00000069   _EVENT105
0000006a   EVENT106
0000006a   _EVENT106
0000006b   EVENT107
0000006b   _EVENT107
0000006c   EVENT108
0000006c   _EVENT108
0000006d   EVENT109
0000006d   _EVENT109
0000006e   EVENT110
0000006e   _EVENT110
0000006f   EVENT111
0000006f   _EVENT111
00000070   EVENT112
00000070   _EVENT112
00000071   EVENT113
00000071   _EVENT113
00000072   EVENT114
00000072   _EVENT114
00000073   EVENT115
00000073   _EVENT115
00000074   EVENT116
00000074   _EVENT116
00000075   EVENT117
00000075   _EVENT117
00000076   EVENT118
00000076   _EVENT118
00000077   EVENT119
00000077   _EVENT119
00000078   EVENT120
00000078   _EVENT120
00000079   EVENT121
00000079   _EVENT121
0000007a   EVENT122
0000007a   _EVENT122
0000007b   EVENT123
0000007b   _EVENT123
0000007c   EVENT124
0000007c   _EVENT124
0000007d   EVENT125
0000007d   _EVENT125
0000007e   EVENT126
0000007e   _EVENT126
0000007f   EVENT127
0000007f   _EVENT127
00000100   HST_MAXFRAMEALLOWED
000003e8   CLK_MICROSECS
00000400   HST_DSMMEMSIZE
00000400   TSK_STACKSIZE
00000408   RTDX_BUFMEMSIZE
00000d66   GBL_CLKTYPE
00001000   __STACK_SIZE
00001963   GBL_DSPSUBTYPE
00004000   CLK_INTBIT
00004000   GBL_TRCMASKVALUE
00004000   HWI_CFGDISPATCHED
00004000   _HWI_CFGDISPATCHED
00004b00   CLK_INPUTCLK
00004b00   CLK_PRD
00004b00   _CLK_PRD
00004e20   GBL_CLKIN
00005205   GBL_A_VERSION
0000ff00   GBL_L2MAR128_159
00010000   DDR2$L
00010000   _DDR2_length
00050910   CLK_COUNTSPMS
00050910   CLK_HTIMEPERLTIME
00050910   CLK_LTIMEMULT
00050910   GBL_FREQ
00050910   _CLK_COUNTSPMS
07060504   HWI_INTRMUX1
0a0a0908   HWI_INTRMUX2
34330d0b   HWI_INTRMUX3
48002000   __PWRM_SCM_BASEADDR
48004000   __PWRM_CM_BASEADDR
48306000   __PWRM_PRM_BASEADDR
49038000   CLK_REGS
49038000   _CLK_REGS
49038000   _CLK_gptimer
5d000000   __PWRM_IVAMMU_BASEADDR
88100080   .text
88100080   HST_A_TABBEG
88100080   HST_A_TABEND
88100080   PIP_A_TABBEG
88100080   PIP_A_TABEND
88100080   PRD_A_TABBEG
88100080   PRD_A_TABEND
88100080   _HST_A_TABBEG
88100080   _HST_A_TABEND
88100080   _PIP_A_TABBEG
88100080   _PIP_A_TABEND
88100080   __RingIO_writerSetvAttribute
88100080   ___text__
8810032c   __RingIO_getFirstAttr
88100424   __RingIO_releaseAttribute
88100510   __RingIO_writerRelease
88100890   __RingIO_initInstance
88100954   __RingIO_writerFlush
88100e88   __RingIO_updateAttributes
88101064   __RingIO_writerCancel
88101420   __RingIO_writerAcquire
88101660   __RingIO_getFirstAcquiredAttr
88101710   __RingIO_invalidateDataBuffer
881017d8   __RingIO_readerRelease
88101bc4   __RingIO_readerGetvAttribute
88101f90   __RingIO_readerFlush
881024b4   __RingIO_readerCancel
8810264c   __RingIO_getContiguousDataSize
88102760   __RingIO_readerAcquire
88102cb4   __RingIO_checkNotifier
88102da0   __RingIO_callNotifier
88102f98   _RingIO_init
88103140   _RingIO_exit
88104290   _ZCPYDATA_tskFxn
88104340   _MPCS_open
881043a0   _MPCS_leave
881044c8   _MPCS_enter
881046e0   _MPCS_delete
88104ba0   _MPCS_create
881051a0   _MPCS_close
881052e0   _IPS_unregister
88105634   _IPS_setReserved
88105660   _IPS_isNotReserved
88105680   _IPS_register
881059c0   _IPS_notify
88105ba0   _IPS_init
88105d00   _IPS_exit
88105db4   _IPS_clearReserved
88105f80   __DSPLINK_init
88106668   _POOL_open
881066f4   _DSPLINK_terminateISR
88106720   _TSKSCALE_execute
881069a4   _TSKSCALE_delete
88106af0   _TSKSCALE_create
881073e0   __MPCS_open
881077ec   _MPCS_init
88107960   _MPCS_exit
88107f40   __divd
88108ee0   _SMAPOOL_open
88109008   _SMAPOOL_init
88109014   _SMAPOOL_free
881091cc   _SMAPOOL_alloc
881093a0   __printfi
881097e0   __divf
8810a420   _fputs
8810b1e0   _DIO_tskReclaim
8810b208   _DIO_tskReady
8810b224   _DIO_tskIssue
8810b2c8   _DIO_tskIdle
8810b3c4   _DIO_tskCallback
8810b460   __divull
8810b6c0   __mpyd
8810c1a0   __addd
8810c3a0   __frcaddd
8810c5a0   __mpyf
8810c9a0   _MPLIST_init
8810cb20   _MPLIST_exit
8810cb80   _HAL_intRegister
8810cca4   _HAL_intInit
8810cf00   __divul
8810d0a0   _HOSTrename
8810d220   _setvbuf
8810d404   _main
8810d780   _fputc
8810d780   _putc
8810db20   _fclose
8810dc40   _NOTIFY_unregister
8810dc94   _NOTIFY_register
8810dcf8   _NOTIFY_notify
8810dd60   _HOSTlseek
8810de60   __frcmpyd
8810e060   __wrt_ok
8810e160   _HAL_intWaitClear
8810e1d0   _HAL_intSend
8810e1e0   _HAL_intEnable
8810e20c   _HAL_intDisable
8810e238   _HAL_intClear
8810e260   _HOSTopen
8810e340   _HOSTread
8810e420   __cmpd
8810e500   _atoi
8810e5e0   _close
8810e6c0   _memset
8810e7a0   _DSPLINK_init
8810e860   _DSPLINKIPS_init
8810e920   _SHMDRV_init
8810e934   _SHMDRV_handshake
8810e9e0   _HOSTunlink
8810eaa0   _HOSTwrite
8810eb60   __cleanup
8810ece0   __c6xabi_divu
8810ece0   __divu
8810eda0   __doflush
8810ee60   _fseek
8810ef20   _lseek
8810efe0   _ltoa
8810f0a0   _write
8810f220   _NOTIFY_init
8810f2e0   _DSPLINKPOOL_init
8810f380   _HOSTclose
8810f420   __divli
8810f600   __fixdli
8810f740   __c6xabi_remu
8810f740   __remu
8810f880   _memcpy
8810f920   __fixdi
8810f9a0   __fixfu
8810fa20   __fltlid
8810faa0   __llshl
8810fb20   __renormd
8810fba0   _printf
8810fc20   _readmsg
8810fca0   _unlink
8810fd20   _ZCPYDATA_init
8810fda0   __frcmpyf
8810fe00   __subcull
8810fe60   _memccpy
8810fec0   _writemsg
8810ff18   C$$IO$$
8810ff20   _DSPLINKDATA_init
8810ff60   _DSPLINKMQT_init
8810ffa0   ___isinf
88110020   __fltuf
88110060   __frcmpyd_div
881100a0   __frcmpyf_div
881100e0   __llshru
88110120   __negd
88110160   __remli
881101a0   __subd
881101e0   _DIO_ctrl
88110220   _HAL_init
88110248   _HAL_exit
88110280   _ZCPYMQT_init
881102c0   __negll
881102e0   __nop
88110340   __register_lock
88110360   __register_unlock
88110380   _remove
88110540   DDR2$B
88110540   _DDR2_base
88110540   ___etext__
88110540   etext
88120540   _EXC_nmi
88120574   _EXC_internal
88120820   _EXC_init
88120860   _EXC_getLastStatus
88120880   _EXC_external
881208b4   _EXC_exceptionHandler
88120a30   _EXC_clearLastStatus
88120a60   CLK_HOOKFXN
88120a60   HWI_F_dispatch
88120a60   _HWI_F_dispatch
88120a60   __HWI_lat1beg
88120be8   __HWI_lat1end
88120be8   __HWI_lat2beg
88120d50   __HWI_lat2end2
88120d80   __HWI_lat3end2
88120dc4   __HWI_lat2end1
88120de0   __HWI_lat3beg
88120f40   SWI_F_enable
88120f40   __SWI_lat3beg
88120fac   __SWI_lat3end
88120fb0   SWI_F_post
88120fb0   _SWI_post
881210b8   __SWI_lat1beg
88121124   SWI_EXECFXN
88121124   SWI_F_exec
8812114c   SWI_F_iexec
88121164   __SWI_lat1end
88121168   __SWI_lat2beg
881211c8   __SWI_lat2end
881211cc   SWI_F_run
881211cc   SWI_RUNFXN
88121400   PRD_F_swi
88121684   PRD_F_tick
88121780   _TSK_create
88121ac0   _SIO_create
88121dc0   _GIO_create
88122060   _free
88122088   _malloc
881220ec   _realloc
881221b8   _memalign
88122298   _calloc
88122300   _KNL_run
88122540   _MEM_free
88122740   _SEM_pendEnterKnl
88122940   _CLK_stop
881229a4   _CLK_start
88122b40   _MEM_alloc
88122d20   _C62_plug
88122d20   _C64_plug
88122d28   _C62_dispatchPlug
88122d28   _C64_dispatchPlug
88122f00   _EXC_dispatch
881230c4   _EXC_setReturnPtr
881232ac   PRD_THOOKFXN
881232ac   _KNL_tick
881232c0   _SIO_delete
881234a0   _GIO_submit
88123660   __SEM_dopost
88123820   _TSK_delete
88123b10   _TSK_setpri
88123ba0   CLK_F_getltime
88123bb0   CLK_F_isr
88123d00   CLK_F_itime
88123d00   _CLK_F_itime
88123d00   _CLK_itime
88123d1c   __CLK_lat1beg
88123d40   __CLK_lat1end
88123d60   _TSK_setup
88123f00   _KNL_saveIsrFrame
88123fac   _KNL_switch
88124058   KNL_glue
88124080   __auto_init
881241c0   _KNL_ready
88124300   _MSGQ_open
88124440   _TSK_exit
88124580   _BCACHE_setSize
881245c4   _BCACHE_setMar
88124614   _BCACHE_bootInit
88124614   _BCACHE_setCacheToSram
88124644   _BCACHE_getSize
88124694   _BCACHE_getMar
881246ec   _CLK_reconfig
88124864   _GBL_cacheInit64P
88124920   _KNL_check
8812496c   __KNL_lat1beg
881249e8   _KNL_idle
881249e8   __KNL_lat1end
88124a10   _KNL_max
88124ae4   _TSK_startup
88124b60   _GIO_delete
88124c60   _MSGQ_startup
88124e2c   _BCACHE_wbInv
88124e40   _BCACHE_wb
88124e50   _BCACHE_inv
88124e60   _MSGQ_locateLocal
88124f40   _SEM_post
88124f40   _SEM_postBinary
88125020   _DEV_match
881250e0   _KNL_exit
88125120   _KNL_enter
881251a0   _MSGQ_alloc
88125260   _SIO_reclaim
88125320   _DEV_mkframe
881253c0   _KNL_start
88125460   _MSGQ_close
88125500   _MSGQ_get
881255a0   _MSGQ_put
88125640   _SEM_postEnterKnl
881256e0   _SWI_setattrs
88125780   _SYS_exit
88125820   _SIO_issue
881258c0   _ATM_andi
881258c0   _ATM_andu
881258d0   _ATM_cleari
881258d0   _ATM_clearu
881258e0   _ATM_deci
881258e0   _ATM_decu
881258f0   _ATM_inci
881258f0   _ATM_incu
88125904   _ATM_ori
88125904   _ATM_oru
88125914   _ATM_seti
88125914   _ATM_setu
88125940   __GIO_iomCallback
881259c0   _HWI_dispatchPlug
88125a40   _HWI_eventMap
88125ac0   _KNL_ipost
88125b40   _KNL_post
88125bc0   _LCK_post
88125be0   _LCK_pend
88125c40   LOG_F_event
88125c40   _LOG_event
88125c40   __LOG_lat1beg
88125cc0   _OBJ_create
88125d40   _SEM_create
88125dc0   _SWI_create
88125e40   _TSK_enable
88125e64   _TSK_disable
88125f0c   _BCACHE_wbInvAll
88125f20   _BCACHE_wbAll
88125f30   _BCACHE_invL1pAll
88125f40   _BCACHE_wait
88125fc0   _MEM_valloc
88126020   _SYS_error
88126080   _DEV_rmframe
881260e0   FXN_F_nop
881260e4   FXN_F_run
881260e4   _FXN_F_run
88126120   FXN_F_zero
88126120   _FXN_F_zero
88126140   _HWI_disable
88126158   _HWI_enable
8812616c   _HWI_restore
881261a0   _LCK_create
88126200   _OBJ_delete
88126260   _SEM_pendBinary
881262c0   _SEM_pend
88126320   STS_F_delta
88126320   _STS_delta
8812634c   STS_F_add
8812634c   _STS_add
88126368   STS_F_reset
88126368   _STS_reset
88126380   _SWI_andn
88126380   _SWI_andnHook
881263e0   _SYS_abort
88126440   SYS_PUTCFXN
88126440   _UTL_doPutc
881264a0   _C62_disableIER
881264a0   _C64_disableIER
881264b8   _C62_enableIER
881264b8   _C64_enableIER
881264cc   _C62_clearIFR
881264cc   _C64_clearIFR
881264e0   _MSGQ_free
88126520   _QUE_create
88126560   _QUE_get
88126560   __QUE_lat1beg
88126580   __QUE_lat1end
88126588   _QUE_put
88126588   __QUE_lat2beg
88126594   __QUE_lat2end
881265a0   SYS_ABORTFXN
881265a0   _UTL_doAbort
881265e0   GBL_USERINITFXN
881265e0   GIO_CREATEFXN
881265e0   GIO_DELETEFXN
881265e0   GIO_PENDFXN
881265e0   GIO_POSTFXN
881265e0   PWRM_PWRM_SHAREDRESOURCEFXN
881265e0   PWRM_PWRM_SLOTHOOKFXN
881265e0   TSK_VCREATEFXN
881265e0   TSK_VDELETEFXN
881265e0   TSK_VEXITFXN
881265e0   _FXN_F_nop
88126600   _GBL_getVersion
88126620   _HOOK_setenv
88126640   IDL_F_loop
88126640   _IDL_loop
88126660   _IOM_mdNotImpl
88126680   _LOG_printf
881266a0   _SEM_delete
881266c0   _STS_set
881266e0   _SWI_delete
88126700   _SYS_zero
88126708   _SYS_one
88126720   SYS_ERRORFXN
88126720   _UTL_doError
88126740   SYS_EXITFXN
88126740   _UTL_halt
88126760   CLK_TIMEFXN
88126760   _CLK_gethtime
88126780   GBL_stackbeg
88126780   _HWI_STKTOP
88126780   __stack
88127778   _HWI_STKBOTTOM
8812777f   GBL_stackend
88127780   __STACK_END
88127780   ___cinit__
88127780   cinit
88128794   IDL_A_TABBEG
88128794   IDL_END
88128798   __ftable
88128978   __tmpnams
88128ab8   __ft_end
88128abc   _QUE_ATTRS
88128cfc   __BCACHE_emifAddr
88128d00   _KNL_queues
88128da0   _KNL_dummy
88128ea8   _DSPLINKPOOL_ctrlPtr
88128f28   _mqtParams
88128f2a   _SamplePoolParams
88128f50   _transports
88128f78   _MSGQ_config
88128f90   _SCALE_Pools
88128fa0   _POOL_config
88128fa8   _ZCPYDATA_devObj
88128ff4   _ZCPYDATA_FXNS
8812900c   _TSK_ATTRS
88129028   _TSK_config
88129048   _TSK_timerSem
88129068   _OBJ_table
881290a0   _OBJ_segtab
881290bc   __TSK_mutex
881290e4   __MEM_mutex
8812910c   _CLK_inputClock
88129110   _SYS_exitStack
88129130   _DIO_tskDynamicFxns
8812914c   _SIO_ATTRS
88129168   _ZCPYMQT_FXNS
88129180   _SWI_ATTRS
881291ac   _EXC_status
881291bc   _GIO_CONFIG
881291ec   _HWI_ATTRS
88129204   __BCACHE_readTable
88129210   __cleanup_ptr
88129214   __dtors_ptr
88129218   ___TI_enable_exit_profile_output
8812921c   _GIO_ATTRS
88129224   _SEM_ATTRS
88129230   _DSPLINK_terminateFxn
88129234   _MPCS_ctrlPtr
88129238   _MPCS_csObj
88129240   _MPCS_GlobalLock
88129244   _MPLIST_ctrlPtr
88129248   _MPLIST_mpcsObj
8812924c   _NOTIFY_ctrlPtr
88129250   _NOTIFY_numIps
88129254   _RingIO_ctrlPtr
88129258   _RingIO_mpcsObj
8812925c   __lock
88129260   __unlock
88129264   _DSPLINKDATA_ctrlPtr
88129268   _DEV_D_devinit
8812926c   _DSPLINKMQT_ctrlPtr
88129270   _xferBufSize
88129272   _numTransfers
88129278   _CLK_gptimer_enablemask
8812927c   IDL_A_CALBEG
8812927c   IDL_END$
88129280   BIOS_init
88129280   _BIOS_init
88129500   BIOS_start
88129500   _BIOS_start
881295a0   _MSGQ_init
881296e0   _DEV_init
88129800   _POOL_init
88129920   _c_int00
881299e0   _MEM_init
88129a80   _TSK_init
88129ae0   _GIO_init
88129b00   _OBJ_init
88129b20   _DIO_init
88129f90   __ctypes_
8812a2f8   _MSGQ_ATTRS
8812a304   _MSGQ_LOCATEATTRS
8812a308   _MSGQ_LOCATEASYNCATTRS
8812a358   _SMAPOOL_FXNS
8812a388   _ZCPYDATA_defaultChanParams
8812a3a1   KNL_swi$sts$maxfmt
8812a3a8   TSK_idle$stack
8812a3a9   KNL_swi$sts$sumfmt
8812a3b1   KNL_swi$sts$avgfmt
8812a740   TSK_idle$stkptr
8812a7a8   ZCPYLINK_TSK_OBJ$stack
8812ab40   ZCPYLINK_TSK_OBJ$stkptr
8812aba8   $bss
8812aba8   .bss
8812aba8   _HWI_dispatchTab
8812aba8   ___bss__
8812aca8   IDL_D_tabbeg
8812acac   IDL_D_calibrate
8812acb0   IDL_D_calbeg
8812acb4   LOG_D_system
8812acb4   _LOG_D_system
8812acb8   PIP_D_tabbeg
8812acbc   PIP_D_tablen
8812acc0   CLK_R_time
8812acc4   CLK_D_timefxn
8812acc8   CLK_D_tabbeg
8812accc   CLK_D_isrhook
8812acd0   CLK_D_idletime
8812acd4   _CLK_htimeDiv
8812acd8   _CLK_htimeMult
8812acdc   _CLK_ltimeDiv
8812ace0   _CLK_ltimeMult
8812ace4   _CLK_D_dirty
8812ace8   _CLK_D_prd
8812acec   _CLK_D_tddr
8812acf0   _CLK_D_countspms
8812acf4   PRD_D_tick
8812acf4   _PRD_D_tick
8812acf8   PRD_D_cur
8812acfc   PRD_D_elapsed
8812ad00   PRD_D_prevtim
8812ad04   PRD_D_scalar
8812ad08   PRD_D_swihandle
8812ad0c   PRD_D_tabbeg
8812ad10   PRD_D_tablen
8812ad14   PRD_D_thook
8812ad18   RTA_D_fromHost
8812ad1c   RTA_D_toHost
8812ad20   RTA_D_logval
8812ad30   RTA_D_stsval
8812ad3c   HST_D_chanmask
8812ad40   HST_D_tabbeg
8812ad44   HST_D_tabend
8812ad48   _GBL_procId
8812ad4c   _GBL_clkIn
8812ad50   _GBL_freq
8812ad54   _MEM_D_NUMSEGMENTS
8812ad58   _MEM_D_memtab
8812ad5c   _MEM_D_freelist
8812ad60   _MEM_D_lockaddr
8812ad64   _MEM_D_unlockaddr
8812ad68   _SYS
8812ad6c   __HOOK_knlId
8812ad70   __HOOK_NUMHOOKS
8812ad74   SWI_D_runaddr
8812ad74   _SWI_D_runaddr
8812ad74   _SWI_data
8812ad78   SWI_D_execaddr
8812ad78   _SWI_D_execaddr
8812ad7c   SWI_D_curmask
8812ad7c   _SWI_D_curmask
8812ad80   SWI_D_curset
8812ad80   _SWI_D_curset
8812ad84   SWI_D_lock
8812ad84   _SWI_D_lock
8812ad88   SWI_D_curmbox
8812ad8c   SWI_D_curfxn
8812ad8c   _SWI_D_curfxn
8812ad90   SWI_D_rdybeg
8812ad90   _SWI_D_rdybeg
8812ad94   SWI_D_inswi
8812ad94   _SWI_D_inswi
8812ad98   SWI_D_rdytab
8812ae10   _KNL_wFlag
8812ae14   _KNL_wList
8812ae18   _KNL_alarm
8812ae1c   _KNL_setpri
8812ae20   _KNL_inactive
8812ae24   _KNL_priority
8812ae28   _KNL_set
8812ae2c   _KNL_curtask
8812ae30   _KNL_prevtask
8812ae34   _KNL_curtime
8812ae38   _KNL_swiptr
8812ae3c   _KNL_curqueue
8812ae40   _KNL_maxqueue
8812ae44   _KNL_tswitchfxn
8812ae48   _KNL_tcreatefxn
8812ae4c   _KNL_tdeletefxn
8812ae50   _KNL_treadyfxn
8812ae54   _KNL_idlefxn
8812ae58   _EXC_sysTrapTable
8812ae60   _EXC_returnPtr
8812ae78   _MEM_memtab
8812ae84   DDR2
8812ae84   HST_DSMBUFSEG
8812ae84   MEM_MALLOCSEG
8812ae84   MEM_SEGZERO
8812ae84   RTDX_DATAMEMSEG
8812ae84   TSK_STACKSEG
8812ae84   _DDR2
8812ae88   _DEV_devinit
8812ae90   __DEV_NUMINITFXNS
8812ae94   HWI_D_spsave
8812ae94   _HWI_D_spsave
8812ae94   _HWI_data
8812aea0   _HWI_D_inhwi
8812aea4   HWI_D_bss
8812aea8   HWI_D_ccmask
8812aeac   _EXC_exceptionHook
8812aeb0   _EXC_internalHook
8812aeb4   _EXC_externalHook
8812aeb8   _EXC_nmiHook
8812aebc   _TSK_nTasks
8812aec0   _TSK_pid
8812aec4   _TSK
8812aec8   _CLK_DFLTMICROSECS
8812aecc   _CLK_D_microseconds
8812aed0   _SYS_exitStackPtr
8812aed4   _SYS_exitStackTop
8812aed8   _CLK_htimePerLtime
8812aedc   __DEV_D_NUMINITFXNS
8812aee0   _GIO
8812aee8   _MEM
8812aeec   _MSGQ
8812aef0   _POOL
8812aefe   ___end__
8812aefe   end
8812af00   LOG_system$buf
8812b000   HWI_A_VECS
8812b000   hwi0
8812b020   hwi1
8812b040   hwi2
8812b060   hwi3
8812b080   hwi4
8812b0a0   hwi5
8812b0c0   hwi6
8812b0e0   hwi7
8812b100   hwi8
8812b120   hwi9
8812b140   hwi10
8812b160   hwi11
8812b180   hwi12
8812b1a0   hwi13
8812b1c0   hwi14
8812b1e0   hwi15
8812b200   _SYS_PUTCBEG
8812b3ff   _SYS_PUTCEND
8812b400   __CIOBUF_
8812b52c   TSK_idle
8812b52c   _TSK_idle
8812b58c   ZCPYLINK_TSK_OBJ
8812b58c   _ZCPYLINK_TSK_OBJ
8812b5e0   KNL_swi$sts$stsobj
8812b5e0   STS_A_TABBEG
8812b5e0   _STS_A_TABBEG
8812b5e4   KNL_swi$sts
8812b5f0   STS_A_TABEND
8812b5f0   _STS_A_TABEND
8812b600   .data
8812b600   _DSPLINK_shmBaseAddress
8812b600   ___data__
8812b608   _DSPLINK_shmBaseAddress_pad
8812b684   DIO_dio_dsplink$obj
8812b684   ___edata__
8812b684   edata
8812b690   DIO_dio_dsplink$device
8812b6a8   UDEV_dsplink$obj
8812b6b4   UDEV_dsplink$device
8812b700   trace$buf
8812b7c0   LOG_A_TABBEG
8812b7c0   LOG_system
8812b7c0   _LOG_A_TABBEG
8812b7c0   _LOG_system
8812b7d8   _trace
8812b7d8   trace
8812b7f0   KNL_swi
8812b7f0   LOG_A_TABEND
8812b7f0   SWI_A_TABBEG
8812b7f0   _KNL_swi
8812b7f0   _LOG_A_TABEND
8812b81c   SWI_A_TABEND
8812b81c   SYS$config
8812b82c   TRC_cinit
8812b830   TRC_R_mask
8812b830   _TRC_R_mask
8812b834   GBL_initdone
8812b838   CLK_A_TABBEG
8812b838   PRD_clock
8812b838   _PRD_clock
8812b83c   CLK_null
ffffffff   CACHE_L1D
ffffffff   CACHE_L1P
ffffffff   CACHE_L2
ffffffff   DSPLINKMEM
ffffffff   ECM_EVTMASK0
ffffffff   ECM_EVTMASK1
ffffffff   ECM_EVTMASK2
ffffffff   ECM_EVTMASK3
ffffffff   IRAM
ffffffff   L1DSRAM
ffffffff   POOLMEM
ffffffff   RESET_VECTOR
ffffffff   _CACHE_L1D
ffffffff   _CACHE_L1P
ffffffff   _CACHE_L2
ffffffff   _DSPLINKMEM
ffffffff   _IRAM
ffffffff   _L1DSRAM
ffffffff   _POOLMEM
ffffffff   _RESET_VECTOR
ffffffff   ___TI_pprof_out_hndl
ffffffff   ___TI_prof_data_size
ffffffff   ___TI_prof_data_start
ffffffff   ___binit__
ffffffff   ___c_args__
ffffffff   ___pinit__
ffffffff   binit
ffffffff   pinit

[1178 symbols]
